
interm.exe:     file format pei-x86-64


Disassembly of section .text:

0000000200000000 <Start>:
   200000000:	56                   	push   rsi
   200000001:	48 89 e6             	mov    rsi,rsp
   200000004:	48 83 e4 f0          	and    rsp,0xfffffffffffffff0
   200000008:	48 83 ec 20          	sub    rsp,0x20
   20000000c:	e8 ef 08 00 00       	call   200000900 <ContextInit>
   200000011:	48 89 f4             	mov    rsp,rsi
   200000014:	5e                   	pop    rsi
   200000015:	c3                   	ret

0000000200000016 <InstStart>:
   200000016:	e8 01 00 00 00       	call   20000001c <RetStartPtr>
   20000001b:	c3                   	ret

000000020000001c <RetStartPtr>:
   20000001c:	48 8b 04 24          	mov    rax,QWORD PTR [rsp]
   200000020:	48 83 e8 1b          	sub    rax,0x1b
   200000024:	c3                   	ret
   200000025:	66 2e 0f 1f 84 00 00 	cs nop WORD PTR [rax+rax*1+0x0]
   20000002c:	00 00 00 
   20000002f:	90                   	nop

0000000200000030 <_ZN4Xtea13BlockToUint32EPKh>:
   200000030:	8b 01                	mov    eax,DWORD PTR [rcx]
   200000032:	8b 51 04             	mov    edx,DWORD PTR [rcx+0x4]
   200000035:	0f c8                	bswap  eax
   200000037:	0f ca                	bswap  edx
   200000039:	89 c0                	mov    eax,eax
   20000003b:	48 c1 e2 20          	shl    rdx,0x20
   20000003f:	48 09 d0             	or     rax,rdx
   200000042:	c3                   	ret

0000000200000043 <_ZN4Xtea13Uint32ToBlockEjjPh>:
   200000043:	0f c9                	bswap  ecx
   200000045:	0f ca                	bswap  edx
   200000047:	41 89 08             	mov    DWORD PTR [r8],ecx
   20000004a:	41 89 50 04          	mov    DWORD PTR [r8+0x4],edx
   20000004e:	c3                   	ret

000000020000004f <_ZN4Xtea10InitCipherEP9CipherTxtPKh>:
   20000004f:	48 83 ec 18          	sub    rsp,0x18
   200000053:	31 c0                	xor    eax,eax
   200000055:	45 31 c0             	xor    r8d,r8d
   200000058:	48 89 04 24          	mov    QWORD PTR [rsp],rax
   20000005c:	48 89 44 24 08       	mov    QWORD PTR [rsp+0x8],rax
   200000061:	42 0f b6 04 02       	movzx  eax,BYTE PTR [rdx+r8*1]
   200000066:	46 0f b6 4c 02 01    	movzx  r9d,BYTE PTR [rdx+r8*1+0x1]
   20000006c:	c1 e0 18             	shl    eax,0x18
   20000006f:	41 c1 e1 10          	shl    r9d,0x10
   200000073:	44 09 c8             	or     eax,r9d
   200000076:	46 0f b6 4c 02 03    	movzx  r9d,BYTE PTR [rdx+r8*1+0x3]
   20000007c:	44 09 c8             	or     eax,r9d
   20000007f:	46 0f b6 4c 02 02    	movzx  r9d,BYTE PTR [rdx+r8*1+0x2]
   200000085:	41 c1 e1 08          	shl    r9d,0x8
   200000089:	44 09 c8             	or     eax,r9d
   20000008c:	42 89 04 04          	mov    DWORD PTR [rsp+r8*1],eax
   200000090:	49 83 c0 04          	add    r8,0x4
   200000094:	49 83 f8 10          	cmp    r8,0x10
   200000098:	75 c7                	jne    200000061 <_ZN4Xtea10InitCipherEP9CipherTxtPKh+0x12>
   20000009a:	31 c0                	xor    eax,eax
   20000009c:	89 c2                	mov    edx,eax
   20000009e:	48 83 c1 08          	add    rcx,0x8
   2000000a2:	83 e2 03             	and    edx,0x3
   2000000a5:	44 8b 14 94          	mov    r10d,DWORD PTR [rsp+rdx*4]
   2000000a9:	41 01 c2             	add    r10d,eax
   2000000ac:	2d 47 86 c8 61       	sub    eax,0x61c88647
   2000000b1:	89 c2                	mov    edx,eax
   2000000b3:	44 89 51 f8          	mov    DWORD PTR [rcx-0x8],r10d
   2000000b7:	c1 ea 0b             	shr    edx,0xb
   2000000ba:	83 e2 03             	and    edx,0x3
   2000000bd:	44 8b 1c 94          	mov    r11d,DWORD PTR [rsp+rdx*4]
   2000000c1:	41 01 c3             	add    r11d,eax
   2000000c4:	44 89 59 fc          	mov    DWORD PTR [rcx-0x4],r11d
   2000000c8:	3d 20 37 ef c6       	cmp    eax,0xc6ef3720
   2000000cd:	75 cd                	jne    20000009c <_ZN4Xtea10InitCipherEP9CipherTxtPKh+0x4d>
   2000000cf:	48 83 c4 18          	add    rsp,0x18
   2000000d3:	c3                   	ret

00000002000000d4 <_ZN4Xtea11XteaEncryptEP9CipherTxtPhS2_>:
   2000000d4:	48 83 ec 28          	sub    rsp,0x28
   2000000d8:	49 89 c9             	mov    r9,rcx
   2000000db:	4c 89 c1             	mov    rcx,r8
   2000000de:	49 89 d2             	mov    r10,rdx
   2000000e1:	e8 4a ff ff ff       	call   200000030 <_ZN4Xtea13BlockToUint32EPKh>
   2000000e6:	45 31 c0             	xor    r8d,r8d
   2000000e9:	48 89 c2             	mov    rdx,rax
   2000000ec:	89 c1                	mov    ecx,eax
   2000000ee:	48 c1 ea 20          	shr    rdx,0x20
   2000000f2:	89 d0                	mov    eax,edx
   2000000f4:	41 89 d3             	mov    r11d,edx
   2000000f7:	41 c1 eb 05          	shr    r11d,0x5
   2000000fb:	c1 e0 04             	shl    eax,0x4
   2000000fe:	44 31 d8             	xor    eax,r11d
   200000101:	01 d0                	add    eax,edx
   200000103:	43 33 04 01          	xor    eax,DWORD PTR [r9+r8*1]
   200000107:	01 c1                	add    ecx,eax
   200000109:	89 c8                	mov    eax,ecx
   20000010b:	41 89 cb             	mov    r11d,ecx
   20000010e:	c1 e0 04             	shl    eax,0x4
   200000111:	41 c1 eb 05          	shr    r11d,0x5
   200000115:	44 31 d8             	xor    eax,r11d
   200000118:	01 c8                	add    eax,ecx
   20000011a:	43 33 44 01 04       	xor    eax,DWORD PTR [r9+r8*1+0x4]
   20000011f:	49 83 c0 08          	add    r8,0x8
   200000123:	01 c2                	add    edx,eax
   200000125:	49 81 f8 00 01 00 00 	cmp    r8,0x100
   20000012c:	75 c4                	jne    2000000f2 <_ZN4Xtea11XteaEncryptEP9CipherTxtPhS2_+0x1e>
   20000012e:	4d 89 d0             	mov    r8,r10
   200000131:	48 83 c4 28          	add    rsp,0x28
   200000135:	e9 09 ff ff ff       	jmp    200000043 <_ZN4Xtea13Uint32ToBlockEjjPh>

000000020000013a <_ZN4Xtea11XteaDecryptEP9CipherTxtPhS2_>:
   20000013a:	48 83 ec 28          	sub    rsp,0x28
   20000013e:	49 89 c9             	mov    r9,rcx
   200000141:	4c 89 c1             	mov    rcx,r8
   200000144:	49 89 d2             	mov    r10,rdx
   200000147:	e8 e4 fe ff ff       	call   200000030 <_ZN4Xtea13BlockToUint32EPKh>
   20000014c:	41 b8 40 00 00 00    	mov    r8d,0x40
   200000152:	48 89 c2             	mov    rdx,rax
   200000155:	89 c1                	mov    ecx,eax
   200000157:	48 c1 ea 20          	shr    rdx,0x20
   20000015b:	89 c8                	mov    eax,ecx
   20000015d:	41 89 cb             	mov    r11d,ecx
   200000160:	41 c1 eb 05          	shr    r11d,0x5
   200000164:	c1 e0 04             	shl    eax,0x4
   200000167:	44 31 d8             	xor    eax,r11d
   20000016a:	45 8d 58 ff          	lea    r11d,[r8-0x1]
   20000016e:	41 83 e8 02          	sub    r8d,0x2
   200000172:	01 c8                	add    eax,ecx
   200000174:	43 33 04 99          	xor    eax,DWORD PTR [r9+r11*4]
   200000178:	29 c2                	sub    edx,eax
   20000017a:	89 d0                	mov    eax,edx
   20000017c:	41 89 d3             	mov    r11d,edx
   20000017f:	41 c1 eb 05          	shr    r11d,0x5
   200000183:	c1 e0 04             	shl    eax,0x4
   200000186:	44 31 d8             	xor    eax,r11d
   200000189:	45 89 c3             	mov    r11d,r8d
   20000018c:	01 d0                	add    eax,edx
   20000018e:	43 33 04 99          	xor    eax,DWORD PTR [r9+r11*4]
   200000192:	29 c1                	sub    ecx,eax
   200000194:	45 85 c0             	test   r8d,r8d
   200000197:	75 c2                	jne    20000015b <_ZN4Xtea11XteaDecryptEP9CipherTxtPhS2_+0x21>
   200000199:	4d 89 d0             	mov    r8,r10
   20000019c:	48 83 c4 28          	add    rsp,0x28
   2000001a0:	e9 9e fe ff ff       	jmp    200000043 <_ZN4Xtea13Uint32ToBlockEjjPh>

00000002000001a5 <_ZN4Xtea10XteaDivideEPhyPy>:
   2000001a5:	41 57                	push   r15
   2000001a7:	41 56                	push   r14
   2000001a9:	41 55                	push   r13
   2000001ab:	49 89 cd             	mov    r13,rcx
   2000001ae:	41 54                	push   r12
   2000001b0:	55                   	push   rbp
   2000001b1:	48 89 d5             	mov    rbp,rdx
   2000001b4:	57                   	push   rdi
   2000001b5:	56                   	push   rsi
   2000001b6:	53                   	push   rbx
   2000001b7:	4c 89 c3             	mov    rbx,r8
   2000001ba:	48 83 ec 38          	sub    rsp,0x38
   2000001be:	e8 53 fe ff ff       	call   200000016 <InstStart>
   2000001c3:	48 8b 15 86 3b 00 00 	mov    rdx,QWORD PTR [rip+0x3b86]        # 200003d50 <.refptr.__InstanceOffset>
   2000001ca:	4c 8d 45 07          	lea    r8,[rbp+0x7]
   2000001ce:	4d 89 c6             	mov    r14,r8
   2000001d1:	49 83 e0 f8          	and    r8,0xfffffffffffffff8
   2000001d5:	48 8b 34 10          	mov    rsi,QWORD PTR [rax+rdx*1]
   2000001d9:	49 c1 ee 03          	shr    r14,0x3
   2000001dd:	31 d2                	xor    edx,edx
   2000001df:	4c 89 33             	mov    QWORD PTR [rbx],r14
   2000001e2:	48 8b 0e             	mov    rcx,QWORD PTR [rsi]
   2000001e5:	ff 96 98 01 00 00    	call   QWORD PTR [rsi+0x198]
   2000001eb:	48 89 c3             	mov    rbx,rax
   2000001ee:	48 85 c0             	test   rax,rax
   2000001f1:	0f 84 b0 00 00 00    	je     2000002a7 <_ZN4Xtea10XteaDivideEPhyPy+0x102>
   2000001f7:	31 ff                	xor    edi,edi
   2000001f9:	45 31 e4             	xor    r12d,r12d
   2000001fc:	4d 39 f4             	cmp    r12,r14
   2000001ff:	0f 84 a2 00 00 00    	je     2000002a7 <_ZN4Xtea10XteaDivideEPhyPy+0x102>
   200000205:	48 8b 0e             	mov    rcx,QWORD PTR [rsi]
   200000208:	41 b8 08 00 00 00    	mov    r8d,0x8
   20000020e:	31 d2                	xor    edx,edx
   200000210:	ff 96 98 01 00 00    	call   QWORD PTR [rsi+0x198]
   200000216:	48 89 04 3b          	mov    QWORD PTR [rbx+rdi*1],rax
   20000021a:	48 89 c1             	mov    rcx,rax
   20000021d:	48 85 c0             	test   rax,rax
   200000220:	75 32                	jne    200000254 <_ZN4Xtea10XteaDivideEPhyPy+0xaf>
   200000222:	31 ff                	xor    edi,edi
   200000224:	48 8b 86 a8 01 00 00 	mov    rax,QWORD PTR [rsi+0x1a8]
   20000022b:	48 8b 0e             	mov    rcx,QWORD PTR [rsi]
   20000022e:	49 39 fc             	cmp    r12,rdi
   200000231:	74 0d                	je     200000240 <_ZN4Xtea10XteaDivideEPhyPy+0x9b>
   200000233:	4c 8b 04 fb          	mov    r8,QWORD PTR [rbx+rdi*8]
   200000237:	31 d2                	xor    edx,edx
   200000239:	48 ff c7             	inc    rdi
   20000023c:	ff d0                	call   rax
   20000023e:	eb e4                	jmp    200000224 <_ZN4Xtea10XteaDivideEPhyPy+0x7f>
   200000240:	49 89 d8             	mov    r8,rbx
   200000243:	31 d2                	xor    edx,edx
   200000245:	ff d0                	call   rax
   200000247:	48 8b 46 08          	mov    rax,QWORD PTR [rsi+0x8]
   20000024b:	c7 40 68 08 00 00 00 	mov    DWORD PTR [rax+0x68],0x8
   200000252:	eb 53                	jmp    2000002a7 <_ZN4Xtea10XteaDivideEPhyPy+0x102>
   200000254:	4c 8d 7f 08          	lea    r15,[rdi+0x8]
   200000258:	49 ff c4             	inc    r12
   20000025b:	41 b8 08 00 00 00    	mov    r8d,0x8
   200000261:	4c 39 fd             	cmp    rbp,r15
   200000264:	73 06                	jae    20000026c <_ZN4Xtea10XteaDivideEPhyPy+0xc7>
   200000266:	49 89 e8             	mov    r8,rbp
   200000269:	49 29 f8             	sub    r8,rdi
   20000026c:	49 8d 54 3d 00       	lea    rdx,[r13+rdi*1+0x0]
   200000271:	4c 89 44 24 28       	mov    QWORD PTR [rsp+0x28],r8
   200000276:	e8 b5 17 00 00       	call   200001a30 <_Z8x_memcpyPvPKvy>
   20000027b:	4c 8b 44 24 28       	mov    r8,QWORD PTR [rsp+0x28]
   200000280:	49 83 f8 07          	cmp    r8,0x7
   200000284:	77 19                	ja     20000029f <_ZN4Xtea10XteaDivideEPhyPy+0xfa>
   200000286:	48 8b 0c 3b          	mov    rcx,QWORD PTR [rbx+rdi*1]
   20000028a:	b8 08 00 00 00       	mov    eax,0x8
   20000028f:	31 d2                	xor    edx,edx
   200000291:	4c 29 c0             	sub    rax,r8
   200000294:	4c 01 c1             	add    rcx,r8
   200000297:	49 89 c0             	mov    r8,rax
   20000029a:	e8 a6 17 00 00       	call   200001a45 <_Z8x_memsetPviy>
   20000029f:	4c 89 ff             	mov    rdi,r15
   2000002a2:	e9 55 ff ff ff       	jmp    2000001fc <_ZN4Xtea10XteaDivideEPhyPy+0x57>
   2000002a7:	48 83 c4 38          	add    rsp,0x38
   2000002ab:	48 89 d8             	mov    rax,rbx
   2000002ae:	5b                   	pop    rbx
   2000002af:	5e                   	pop    rsi
   2000002b0:	5f                   	pop    rdi
   2000002b1:	5d                   	pop    rbp
   2000002b2:	41 5c                	pop    r12
   2000002b4:	41 5d                	pop    r13
   2000002b6:	41 5e                	pop    r14
   2000002b8:	41 5f                	pop    r15
   2000002ba:	c3                   	ret

00000002000002bb <_ZN4Xtea9XteaCryptEPhyS0_i>:
   2000002bb:	41 57                	push   r15
   2000002bd:	45 89 cf             	mov    r15d,r9d
   2000002c0:	41 56                	push   r14
   2000002c2:	41 55                	push   r13
   2000002c4:	41 54                	push   r12
   2000002c6:	49 89 cc             	mov    r12,rcx
   2000002c9:	55                   	push   rbp
   2000002ca:	48 89 d5             	mov    rbp,rdx
   2000002cd:	57                   	push   rdi
   2000002ce:	4c 89 c7             	mov    rdi,r8
   2000002d1:	56                   	push   rsi
   2000002d2:	53                   	push   rbx
   2000002d3:	48 83 ec 48          	sub    rsp,0x48
   2000002d7:	e8 3a fd ff ff       	call   200000016 <InstStart>
   2000002dc:	48 8b 15 6d 3a 00 00 	mov    rdx,QWORD PTR [rip+0x3a6d]        # 200003d50 <.refptr.__InstanceOffset>
   2000002e3:	48 8b 1c 10          	mov    rbx,QWORD PTR [rax+rdx*1]
   2000002e7:	31 c0                	xor    eax,eax
   2000002e9:	48 89 44 24 38       	mov    QWORD PTR [rsp+0x38],rax
   2000002ee:	48 85 ff             	test   rdi,rdi
   2000002f1:	75 04                	jne    2000002f7 <_ZN4Xtea9XteaCryptEPhyS0_i+0x3c>
   2000002f3:	48 8b 7b 58          	mov    rdi,QWORD PTR [rbx+0x58]
   2000002f7:	48 8b 0b             	mov    rcx,QWORD PTR [rbx]
   2000002fa:	41 b8 00 01 00 00    	mov    r8d,0x100
   200000300:	31 d2                	xor    edx,edx
   200000302:	ff 93 98 01 00 00    	call   QWORD PTR [rbx+0x198]
   200000308:	48 89 c6             	mov    rsi,rax
   20000030b:	48 85 c0             	test   rax,rax
   20000030e:	0f 84 00 01 00 00    	je     200000414 <_ZN4Xtea9XteaCryptEPhyS0_i+0x159>
   200000314:	48 89 fa             	mov    rdx,rdi
   200000317:	48 89 c1             	mov    rcx,rax
   20000031a:	e8 30 fd ff ff       	call   20000004f <_ZN4Xtea10InitCipherEP9CipherTxtPKh>
   20000031f:	4c 8d 44 24 38       	lea    r8,[rsp+0x38]
   200000324:	48 89 ea             	mov    rdx,rbp
   200000327:	4c 89 e1             	mov    rcx,r12
   20000032a:	e8 76 fe ff ff       	call   2000001a5 <_ZN4Xtea10XteaDivideEPhyPy>
   20000032f:	48 89 c7             	mov    rdi,rax
   200000332:	48 85 c0             	test   rax,rax
   200000335:	0f 84 d9 00 00 00    	je     200000414 <_ZN4Xtea9XteaCryptEPhyS0_i+0x159>
   20000033b:	49 89 e8             	mov    r8,rbp
   20000033e:	31 d2                	xor    edx,edx
   200000340:	4c 89 e1             	mov    rcx,r12
   200000343:	45 31 ed             	xor    r13d,r13d
   200000346:	e8 fa 16 00 00       	call   200001a45 <_Z8x_memsetPviy>
   20000034b:	45 31 f6             	xor    r14d,r14d
   20000034e:	4c 8b 4c 24 38       	mov    r9,QWORD PTR [rsp+0x38]
   200000353:	45 89 ea             	mov    r10d,r13d
   200000356:	48 8b 0b             	mov    rcx,QWORD PTR [rbx]
   200000359:	4d 39 ca             	cmp    r10,r9
   20000035c:	73 66                	jae    2000003c4 <_ZN4Xtea9XteaCryptEPhyS0_i+0x109>
   20000035e:	4c 89 54 24 28       	mov    QWORD PTR [rsp+0x28],r10
   200000363:	41 b8 08 00 00 00    	mov    r8d,0x8
   200000369:	31 d2                	xor    edx,edx
   20000036b:	ff 93 98 01 00 00    	call   QWORD PTR [rbx+0x198]
   200000371:	4c 8b 54 24 28       	mov    r10,QWORD PTR [rsp+0x28]
   200000376:	48 89 f1             	mov    rcx,rsi
   200000379:	48 89 c5             	mov    rbp,rax
   20000037c:	4a 8d 04 d7          	lea    rax,[rdi+r10*8]
   200000380:	48 89 ea             	mov    rdx,rbp
   200000383:	4c 8b 00             	mov    r8,QWORD PTR [rax]
   200000386:	45 85 ff             	test   r15d,r15d
   200000389:	74 07                	je     200000392 <_ZN4Xtea9XteaCryptEPhyS0_i+0xd7>
   20000038b:	e8 44 fd ff ff       	call   2000000d4 <_ZN4Xtea11XteaEncryptEP9CipherTxtPhS2_>
   200000390:	eb 05                	jmp    200000397 <_ZN4Xtea9XteaCryptEPhyS0_i+0xdc>
   200000392:	e8 a3 fd ff ff       	call   20000013a <_ZN4Xtea11XteaDecryptEP9CipherTxtPhS2_>
   200000397:	31 c0                	xor    eax,eax
   200000399:	4b 8d 14 34          	lea    rdx,[r12+r14*1]
   20000039d:	8a 4c 05 00          	mov    cl,BYTE PTR [rbp+rax*1+0x0]
   2000003a1:	88 0c 02             	mov    BYTE PTR [rdx+rax*1],cl
   2000003a4:	48 ff c0             	inc    rax
   2000003a7:	48 83 f8 08          	cmp    rax,0x8
   2000003ab:	75 f0                	jne    20000039d <_ZN4Xtea9XteaCryptEPhyS0_i+0xe2>
   2000003ad:	48 8b 0b             	mov    rcx,QWORD PTR [rbx]
   2000003b0:	49 89 e8             	mov    r8,rbp
   2000003b3:	31 d2                	xor    edx,edx
   2000003b5:	49 83 c6 08          	add    r14,0x8
   2000003b9:	ff 93 a8 01 00 00    	call   QWORD PTR [rbx+0x1a8]
   2000003bf:	41 ff c5             	inc    r13d
   2000003c2:	eb 8a                	jmp    20000034e <_ZN4Xtea9XteaCryptEPhyS0_i+0x93>
   2000003c4:	31 ed                	xor    ebp,ebp
   2000003c6:	48 8b 83 a8 01 00 00 	mov    rax,QWORD PTR [rbx+0x1a8]
   2000003cd:	48 8b 0b             	mov    rcx,QWORD PTR [rbx]
   2000003d0:	49 39 e9             	cmp    r9,rbp
   2000003d3:	74 17                	je     2000003ec <_ZN4Xtea9XteaCryptEPhyS0_i+0x131>
   2000003d5:	4c 89 4c 24 28       	mov    QWORD PTR [rsp+0x28],r9
   2000003da:	4c 8b 04 ef          	mov    r8,QWORD PTR [rdi+rbp*8]
   2000003de:	31 d2                	xor    edx,edx
   2000003e0:	48 ff c5             	inc    rbp
   2000003e3:	ff d0                	call   rax
   2000003e5:	4c 8b 4c 24 28       	mov    r9,QWORD PTR [rsp+0x28]
   2000003ea:	eb da                	jmp    2000003c6 <_ZN4Xtea9XteaCryptEPhyS0_i+0x10b>
   2000003ec:	49 89 f8             	mov    r8,rdi
   2000003ef:	31 d2                	xor    edx,edx
   2000003f1:	ff d0                	call   rax
   2000003f3:	48 8b 83 a8 01 00 00 	mov    rax,QWORD PTR [rbx+0x1a8]
   2000003fa:	48 8b 0b             	mov    rcx,QWORD PTR [rbx]
   2000003fd:	48 83 c4 48          	add    rsp,0x48
   200000401:	5b                   	pop    rbx
   200000402:	49 89 f0             	mov    r8,rsi
   200000405:	31 d2                	xor    edx,edx
   200000407:	5e                   	pop    rsi
   200000408:	5f                   	pop    rdi
   200000409:	5d                   	pop    rbp
   20000040a:	41 5c                	pop    r12
   20000040c:	41 5d                	pop    r13
   20000040e:	41 5e                	pop    r14
   200000410:	41 5f                	pop    r15
   200000412:	ff e0                	jmp    rax
   200000414:	48 83 c4 48          	add    rsp,0x48
   200000418:	5b                   	pop    rbx
   200000419:	5e                   	pop    rsi
   20000041a:	5f                   	pop    rdi
   20000041b:	5d                   	pop    rbp
   20000041c:	41 5c                	pop    r12
   20000041e:	41 5d                	pop    r13
   200000420:	41 5e                	pop    r14
   200000422:	41 5f                	pop    r15
   200000424:	c3                   	ret
   200000425:	90                   	nop
   200000426:	90                   	nop
   200000427:	90                   	nop
   200000428:	90                   	nop
   200000429:	90                   	nop
   20000042a:	90                   	nop
   20000042b:	90                   	nop
   20000042c:	90                   	nop
   20000042d:	90                   	nop
   20000042e:	90                   	nop
   20000042f:	90                   	nop

0000000200000430 <_ZN8Commands13DirectoryListEP6PARSER>:
   200000430:	41 57                	push   r15
   200000432:	41 56                	push   r14
   200000434:	41 55                	push   r13
   200000436:	41 54                	push   r12
   200000438:	55                   	push   rbp
   200000439:	48 89 cd             	mov    rbp,rcx
   20000043c:	57                   	push   rdi
   20000043d:	56                   	push   rsi
   20000043e:	53                   	push   rbx
   20000043f:	48 81 ec 98 02 00 00 	sub    rsp,0x298
   200000446:	e8 cb fb ff ff       	call   200000016 <InstStart>
   20000044b:	48 8b 15 fe 38 00 00 	mov    rdx,QWORD PTR [rip+0x38fe]        # 200003d50 <.refptr.__InstanceOffset>
   200000452:	b9 02 00 00 00       	mov    ecx,0x2
   200000457:	48 8d 7c 24 4c       	lea    rdi,[rsp+0x4c]
   20000045c:	4c 8d a4 24 50 01 00 	lea    r12,[rsp+0x150]
   200000463:	00 
   200000464:	48 8b 34 10          	mov    rsi,QWORD PTR [rax+rdx*1]
   200000468:	e8 71 37 00 00       	call   200003bde <_ZN6Stream23CreateStreamWithHeadersEm>
   20000046d:	b9 41 00 00 00       	mov    ecx,0x41
   200000472:	ba ff ff ff 7f       	mov    edx,0x7fffffff
   200000477:	48 89 c3             	mov    rbx,rax
   20000047a:	31 c0                	xor    eax,eax
   20000047c:	f3 ab                	rep stos DWORD PTR es:[rdi],eax
   20000047e:	48 8d bc 24 50 01 00 	lea    rdi,[rsp+0x150]
   200000485:	00 
   200000486:	b9 50 00 00 00       	mov    ecx,0x50
   20000048b:	f3 ab                	rep stos DWORD PTR es:[rdi],eax
   20000048d:	31 c0                	xor    eax,eax
   20000048f:	48 89 d9             	mov    rcx,rbx
   200000492:	31 ff                	xor    edi,edi
   200000494:	48 89 44 24 2c       	mov    QWORD PTR [rsp+0x2c],rax
   200000499:	48 89 44 24 34       	mov    QWORD PTR [rsp+0x34],rax
   20000049e:	48 89 44 24 3c       	mov    QWORD PTR [rsp+0x3c],rax
   2000004a3:	48 89 44 24 44       	mov    QWORD PTR [rsp+0x44],rax
   2000004a8:	e8 dd 36 00 00       	call   200003b8a <_ZN6Stream9PackDwordEP7_streamm>
   2000004ad:	48 8b 45 00          	mov    rax,QWORD PTR [rbp+0x0]
   2000004b1:	80 38 2e             	cmp    BYTE PTR [rax],0x2e
   2000004b4:	75 45                	jne    2000004fb <_ZN8Commands13DirectoryListEP6PARSER+0xcb>
   2000004b6:	48 8d 54 24 4c       	lea    rdx,[rsp+0x4c]
   2000004bb:	b9 08 02 00 00       	mov    ecx,0x208
   2000004c0:	ff 96 f0 02 00 00    	call   QWORD PTR [rsi+0x2f0]
   2000004c6:	85 c0                	test   eax,eax
   2000004c8:	75 10                	jne    2000004da <_ZN8Commands13DirectoryListEP6PARSER+0xaa>
   2000004ca:	48 8b 46 08          	mov    rax,QWORD PTR [rsi+0x8]
   2000004ce:	c7 40 68 0b 01 00 00 	mov    DWORD PTR [rax+0x68],0x10b
   2000004d5:	e9 74 01 00 00       	jmp    20000064e <_ZN8Commands13DirectoryListEP6PARSER+0x21e>
   2000004da:	8d 50 ff             	lea    edx,[rax-0x1]
   2000004dd:	80 7c 14 4c 5c       	cmp    BYTE PTR [rsp+rdx*1+0x4c],0x5c
   2000004e2:	74 09                	je     2000004ed <_ZN8Commands13DirectoryListEP6PARSER+0xbd>
   2000004e4:	89 c2                	mov    edx,eax
   2000004e6:	ff c0                	inc    eax
   2000004e8:	c6 44 14 4c 5c       	mov    BYTE PTR [rsp+rdx*1+0x4c],0x5c
   2000004ed:	89 c2                	mov    edx,eax
   2000004ef:	ff c0                	inc    eax
   2000004f1:	c6 44 14 4c 2a       	mov    BYTE PTR [rsp+rdx*1+0x4c],0x2a
   2000004f6:	c6 44 04 4c 00       	mov    BYTE PTR [rsp+rax*1+0x4c],0x0
   2000004fb:	48 89 e9             	mov    rcx,rbp
   2000004fe:	31 d2                	xor    edx,edx
   200000500:	4c 8b ae d8 02 00 00 	mov    r13,QWORD PTR [rsi+0x2d8]
   200000507:	e8 2e 33 00 00       	call   20000383a <_ZN6Parser12UnpackStringEP6PARSERPm>
   20000050c:	4c 89 e2             	mov    rdx,r12
   20000050f:	48 89 c1             	mov    rcx,rax
   200000512:	41 ff d5             	call   r13
   200000515:	48 89 c5             	mov    rbp,rax
   200000518:	48 83 f8 ff          	cmp    rax,0xffffffffffffffff
   20000051c:	74 19                	je     200000537 <_ZN8Commands13DirectoryListEP6PARSER+0x107>
   20000051e:	4c 8d 6c 24 2c       	lea    r13,[rsp+0x2c]
   200000523:	4c 8d b4 24 5c 01 00 	lea    r14,[rsp+0x15c]
   20000052a:	00 
   20000052b:	49 bf 00 00 00 00 ff 	movabs r15,0xffffffff00000000
   200000532:	ff ff ff 
   200000535:	eb 10                	jmp    200000547 <_ZN8Commands13DirectoryListEP6PARSER+0x117>
   200000537:	48 8b 46 08          	mov    rax,QWORD PTR [rsi+0x8]
   20000053b:	c7 40 68 02 00 00 00 	mov    DWORD PTR [rax+0x68],0x2
   200000542:	e9 fe 00 00 00       	jmp    200000645 <_ZN8Commands13DirectoryListEP6PARSER+0x215>
   200000547:	4c 89 ea             	mov    rdx,r13
   20000054a:	4c 89 f1             	mov    rcx,r14
   20000054d:	ff 96 f8 02 00 00    	call   QWORD PTR [rsi+0x2f8]
   200000553:	85 c0                	test   eax,eax
   200000555:	75 10                	jne    200000567 <_ZN8Commands13DirectoryListEP6PARSER+0x137>
   200000557:	48 8b 46 08          	mov    rax,QWORD PTR [rsi+0x8]
   20000055b:	c7 40 68 6d 07 00 00 	mov    DWORD PTR [rax+0x68],0x76d
   200000562:	e9 d9 00 00 00       	jmp    200000640 <_ZN8Commands13DirectoryListEP6PARSER+0x210>
   200000567:	31 c9                	xor    ecx,ecx
   200000569:	4c 8d 44 24 3c       	lea    r8,[rsp+0x3c]
   20000056e:	4c 89 ea             	mov    rdx,r13
   200000571:	ff 96 00 03 00 00    	call   QWORD PTR [rsi+0x300]
   200000577:	85 c0                	test   eax,eax
   200000579:	74 dc                	je     200000557 <_ZN8Commands13DirectoryListEP6PARSER+0x127>
   20000057b:	f6 84 24 50 01 00 00 	test   BYTE PTR [rsp+0x150],0x10
   200000582:	10 
   200000583:	74 0f                	je     200000594 <_ZN8Commands13DirectoryListEP6PARSER+0x164>
   200000585:	ba 01 00 00 00       	mov    edx,0x1
   20000058a:	48 89 d9             	mov    rcx,rbx
   20000058d:	e8 9e 36 00 00       	call   200003c30 <_ZN6Stream8PackBoolEP7_streami>
   200000592:	eb 32                	jmp    2000005c6 <_ZN8Commands13DirectoryListEP6PARSER+0x196>
   200000594:	8b 84 24 6c 01 00 00 	mov    eax,DWORD PTR [rsp+0x16c]
   20000059b:	89 ff                	mov    edi,edi
   20000059d:	31 d2                	xor    edx,edx
   20000059f:	48 89 d9             	mov    rcx,rbx
   2000005a2:	48 c1 e0 20          	shl    rax,0x20
   2000005a6:	48 09 c7             	or     rdi,rax
   2000005a9:	8b 84 24 70 01 00 00 	mov    eax,DWORD PTR [rsp+0x170]
   2000005b0:	4c 21 ff             	and    rdi,r15
   2000005b3:	48 09 c7             	or     rdi,rax
   2000005b6:	e8 75 36 00 00       	call   200003c30 <_ZN6Stream8PackBoolEP7_streami>
   2000005bb:	48 89 fa             	mov    rdx,rdi
   2000005be:	48 89 d9             	mov    rcx,rbx
   2000005c1:	e8 6e 35 00 00       	call   200003b34 <_ZN6Stream11PackDword64EP7_streamy>
   2000005c6:	0f b7 54 24 32       	movzx  edx,WORD PTR [rsp+0x32]
   2000005cb:	48 89 d9             	mov    rcx,rbx
   2000005ce:	e8 b7 35 00 00       	call   200003b8a <_ZN6Stream9PackDwordEP7_streamm>
   2000005d3:	0f b7 54 24 2e       	movzx  edx,WORD PTR [rsp+0x2e]
   2000005d8:	48 89 d9             	mov    rcx,rbx
   2000005db:	e8 aa 35 00 00       	call   200003b8a <_ZN6Stream9PackDwordEP7_streamm>
   2000005e0:	0f b7 54 24 2c       	movzx  edx,WORD PTR [rsp+0x2c]
   2000005e5:	48 89 d9             	mov    rcx,rbx
   2000005e8:	e8 9d 35 00 00       	call   200003b8a <_ZN6Stream9PackDwordEP7_streamm>
   2000005ed:	0f b7 54 24 48       	movzx  edx,WORD PTR [rsp+0x48]
   2000005f2:	48 89 d9             	mov    rcx,rbx
   2000005f5:	e8 90 35 00 00       	call   200003b8a <_ZN6Stream9PackDwordEP7_streamm>
   2000005fa:	0f b7 54 24 46       	movzx  edx,WORD PTR [rsp+0x46]
   2000005ff:	48 89 d9             	mov    rcx,rbx
   200000602:	e8 83 35 00 00       	call   200003b8a <_ZN6Stream9PackDwordEP7_streamm>
   200000607:	0f b7 54 24 44       	movzx  edx,WORD PTR [rsp+0x44]
   20000060c:	48 89 d9             	mov    rcx,rbx
   20000060f:	e8 76 35 00 00       	call   200003b8a <_ZN6Stream9PackDwordEP7_streamm>
   200000614:	48 8d 94 24 7c 01 00 	lea    rdx,[rsp+0x17c]
   20000061b:	00 
   20000061c:	48 89 d9             	mov    rcx,rbx
   20000061f:	e8 d8 36 00 00       	call   200003cfc <_ZN6Stream10PackStringEP7_streamPc>
   200000624:	4c 89 e2             	mov    rdx,r12
   200000627:	48 89 e9             	mov    rcx,rbp
   20000062a:	ff 96 e8 02 00 00    	call   QWORD PTR [rsi+0x2e8]
   200000630:	85 c0                	test   eax,eax
   200000632:	0f 85 0f ff ff ff    	jne    200000547 <_ZN8Commands13DirectoryListEP6PARSER+0x117>
   200000638:	48 89 d9             	mov    rcx,rbx
   20000063b:	e8 04 1b 00 00       	call   200002144 <_ZN7Message13OutboundQueueEP7_stream>
   200000640:	48 85 ed             	test   rbp,rbp
   200000643:	74 09                	je     20000064e <_ZN8Commands13DirectoryListEP6PARSER+0x21e>
   200000645:	48 89 e9             	mov    rcx,rbp
   200000648:	ff 96 e0 02 00 00    	call   QWORD PTR [rsi+0x2e0]
   20000064e:	48 81 c4 98 02 00 00 	add    rsp,0x298
   200000655:	5b                   	pop    rbx
   200000656:	5e                   	pop    rsi
   200000657:	5f                   	pop    rdi
   200000658:	5d                   	pop    rbp
   200000659:	41 5c                	pop    r12
   20000065b:	41 5d                	pop    r13
   20000065d:	41 5e                	pop    r14
   20000065f:	41 5f                	pop    r15
   200000661:	c3                   	ret

0000000200000662 <_ZN8Commands14ProcessModulesEP6PARSER>:
   200000662:	41 57                	push   r15
   200000664:	41 56                	push   r14
   200000666:	41 55                	push   r13
   200000668:	41 54                	push   r12
   20000066a:	55                   	push   rbp
   20000066b:	57                   	push   rdi
   20000066c:	56                   	push   rsi
   20000066d:	48 89 ce             	mov    rsi,rcx
   200000670:	53                   	push   rbx
   200000671:	48 81 ec 78 04 00 00 	sub    rsp,0x478
   200000678:	e8 99 f9 ff ff       	call   200000016 <InstStart>
   20000067d:	b9 02 00 00 00       	mov    ecx,0x2
   200000682:	48 8d 7c 24 50       	lea    rdi,[rsp+0x50]
   200000687:	48 8b 15 c2 36 00 00 	mov    rdx,QWORD PTR [rip+0x36c2]        # 200003d50 <.refptr.__InstanceOffset>
   20000068e:	48 8b 1c 10          	mov    rbx,QWORD PTR [rax+rdx*1]
   200000692:	e8 47 35 00 00       	call   200003bde <_ZN6Stream23CreateStreamWithHeadersEm>
   200000697:	b9 0c 00 00 00       	mov    ecx,0xc
   20000069c:	45 31 c9             	xor    r9d,r9d
   20000069f:	45 31 d2             	xor    r10d,r10d
   2000006a2:	48 89 c5             	mov    rbp,rax
   2000006a5:	31 c0                	xor    eax,eax
   2000006a7:	45 31 db             	xor    r11d,r11d
   2000006aa:	ba fe ff ff 7f       	mov    edx,0x7ffffffe
   2000006af:	f3 ab                	rep stos DWORD PTR es:[rdi],eax
   2000006b1:	b9 38 00 00 00       	mov    ecx,0x38
   2000006b6:	4c 89 4c 24 38       	mov    QWORD PTR [rsp+0x38],r9
   2000006bb:	48 8d bc 24 80 00 00 	lea    rdi,[rsp+0x80]
   2000006c2:	00 
   2000006c3:	f3 ab                	rep stos DWORD PTR es:[rdi],eax
   2000006c5:	b9 41 00 00 00       	mov    ecx,0x41
   2000006ca:	4c 89 54 24 40       	mov    QWORD PTR [rsp+0x40],r10
   2000006cf:	48 8d bc 24 64 01 00 	lea    rdi,[rsp+0x164]
   2000006d6:	00 
   2000006d7:	f3 ab                	rep stos DWORD PTR es:[rdi],eax
   2000006d9:	48 8d bc 24 68 02 00 	lea    rdi,[rsp+0x268]
   2000006e0:	00 
   2000006e1:	b9 82 00 00 00       	mov    ecx,0x82
   2000006e6:	4c 89 5c 24 48       	mov    QWORD PTR [rsp+0x48],r11
   2000006eb:	f3 ab                	rep stos DWORD PTR es:[rdi],eax
   2000006ed:	48 89 e9             	mov    rcx,rbp
   2000006f0:	e8 95 34 00 00       	call   200003b8a <_ZN6Stream9PackDwordEP7_streamm>
   2000006f5:	48 8b 0e             	mov    rcx,QWORD PTR [rsi]
   2000006f8:	e8 53 31 00 00       	call   200003850 <_ZN7Process18GetProcessIdByNameEPc>
   2000006fd:	85 c0                	test   eax,eax
   2000006ff:	75 10                	jne    200000711 <_ZN8Commands14ProcessModulesEP6PARSER+0xaf>
   200000701:	48 8b 43 08          	mov    rax,QWORD PTR [rbx+0x8]
   200000705:	c7 40 68 0d 05 00 00 	mov    DWORD PTR [rax+0x68],0x50d
   20000070c:	e9 8b 01 00 00       	jmp    20000089c <_ZN8Commands14ProcessModulesEP6PARSER+0x23a>
   200000711:	89 c2                	mov    edx,eax
   200000713:	b9 10 04 00 00       	mov    ecx,0x410
   200000718:	e8 ee 31 00 00       	call   20000390b <_ZN7Process13NtOpenProcessEmm>
   20000071d:	48 89 c6             	mov    rsi,rax
   200000720:	48 85 c0             	test   rax,rax
   200000723:	74 dc                	je     200000701 <_ZN8Commands14ProcessModulesEP6PARSER+0x9f>
   200000725:	45 31 c0             	xor    r8d,r8d
   200000728:	31 d2                	xor    edx,edx
   20000072a:	41 b9 30 00 00 00    	mov    r9d,0x30
   200000730:	48 89 c1             	mov    rcx,rax
   200000733:	4c 89 44 24 20       	mov    QWORD PTR [rsp+0x20],r8
   200000738:	4c 8d 44 24 50       	lea    r8,[rsp+0x50]
   20000073d:	ff 93 88 01 00 00    	call   QWORD PTR [rbx+0x188]
   200000743:	85 c0                	test   eax,eax
   200000745:	79 0d                	jns    200000754 <_ZN8Commands14ProcessModulesEP6PARSER+0xf2>
   200000747:	48 89 e9             	mov    rcx,rbp
   20000074a:	e8 f5 19 00 00       	call   200002144 <_ZN7Message13OutboundQueueEP7_stream>
   20000074f:	e9 48 01 00 00       	jmp    20000089c <_ZN8Commands14ProcessModulesEP6PARSER+0x23a>
   200000754:	48 8b 44 24 58       	mov    rax,QWORD PTR [rsp+0x58]
   200000759:	4c 8d 74 24 48       	lea    r14,[rsp+0x48]
   20000075e:	4c 8d 44 24 38       	lea    r8,[rsp+0x38]
   200000763:	48 89 f1             	mov    rcx,rsi
   200000766:	41 b9 08 00 00 00    	mov    r9d,0x8
   20000076c:	4c 89 74 24 20       	mov    QWORD PTR [rsp+0x20],r14
   200000771:	4c 8d bc 24 80 00 00 	lea    r15,[rsp+0x80]
   200000778:	00 
   200000779:	4c 8d a4 24 64 01 00 	lea    r12,[rsp+0x164]
   200000780:	00 
   200000781:	48 8d 50 18          	lea    rdx,[rax+0x18]
   200000785:	4c 8d ac 24 68 02 00 	lea    r13,[rsp+0x268]
   20000078c:	00 
   20000078d:	ff 93 20 01 00 00    	call   QWORD PTR [rbx+0x120]
   200000793:	48 8b 53 08          	mov    rdx,QWORD PTR [rbx+0x8]
   200000797:	31 c9                	xor    ecx,ecx
   200000799:	41 b9 08 00 00 00    	mov    r9d,0x8
   20000079f:	4c 8d 44 24 40       	lea    r8,[rsp+0x40]
   2000007a4:	89 42 68             	mov    DWORD PTR [rdx+0x68],eax
   2000007a7:	48 8b 44 24 38       	mov    rax,QWORD PTR [rsp+0x38]
   2000007ac:	48 89 4c 24 20       	mov    QWORD PTR [rsp+0x20],rcx
   2000007b1:	48 89 f1             	mov    rcx,rsi
   2000007b4:	48 8d 50 20          	lea    rdx,[rax+0x20]
   2000007b8:	ff 93 20 01 00 00    	call   QWORD PTR [rbx+0x120]
   2000007be:	48 8b 53 08          	mov    rdx,QWORD PTR [rbx+0x8]
   2000007c2:	89 42 68             	mov    DWORD PTR [rdx+0x68],eax
   2000007c5:	48 8b 44 24 38       	mov    rax,QWORD PTR [rsp+0x38]
   2000007ca:	48 8d 78 20          	lea    rdi,[rax+0x20]
   2000007ce:	48 8b 54 24 40       	mov    rdx,QWORD PTR [rsp+0x40]
   2000007d3:	48 39 fa             	cmp    rdx,rdi
   2000007d6:	0f 84 6b ff ff ff    	je     200000747 <_ZN8Commands14ProcessModulesEP6PARSER+0xe5>
   2000007dc:	31 c0                	xor    eax,eax
   2000007de:	48 83 ea 10          	sub    rdx,0x10
   2000007e2:	41 b9 e0 00 00 00    	mov    r9d,0xe0
   2000007e8:	4d 89 f8             	mov    r8,r15
   2000007eb:	48 89 f1             	mov    rcx,rsi
   2000007ee:	48 89 44 24 20       	mov    QWORD PTR [rsp+0x20],rax
   2000007f3:	ff 93 20 01 00 00    	call   QWORD PTR [rbx+0x120]
   2000007f9:	48 8b 53 08          	mov    rdx,QWORD PTR [rbx+0x8]
   2000007fd:	4d 89 e8             	mov    r8,r13
   200000800:	48 89 f1             	mov    rcx,rsi
   200000803:	44 0f b7 8c 24 c8 00 	movzx  r9d,WORD PTR [rsp+0xc8]
   20000080a:	00 00 
   20000080c:	89 42 68             	mov    DWORD PTR [rdx+0x68],eax
   20000080f:	48 8b 94 24 d0 00 00 	mov    rdx,QWORD PTR [rsp+0xd0]
   200000816:	00 
   200000817:	4c 89 74 24 20       	mov    QWORD PTR [rsp+0x20],r14
   20000081c:	ff 93 20 01 00 00    	call   QWORD PTR [rbx+0x120]
   200000822:	48 8b 53 08          	mov    rdx,QWORD PTR [rbx+0x8]
   200000826:	44 0f b7 84 24 c8 00 	movzx  r8d,WORD PTR [rsp+0xc8]
   20000082d:	00 00 
   20000082f:	89 42 68             	mov    DWORD PTR [rdx+0x68],eax
   200000832:	4c 3b 44 24 48       	cmp    r8,QWORD PTR [rsp+0x48]
   200000837:	75 63                	jne    20000089c <_ZN8Commands14ProcessModulesEP6PARSER+0x23a>
   200000839:	66 45 85 c0          	test   r8w,r8w
   20000083d:	74 2b                	je     20000086a <_ZN8Commands14ProcessModulesEP6PARSER+0x208>
   20000083f:	4c 89 ea             	mov    rdx,r13
   200000842:	4c 89 e1             	mov    rcx,r12
   200000845:	e8 dd 13 00 00       	call   200001c27 <_Z10x_wcstombsPcPwy>
   20000084a:	4c 89 e2             	mov    rdx,r12
   20000084d:	48 89 e9             	mov    rcx,rbp
   200000850:	48 89 44 24 48       	mov    QWORD PTR [rsp+0x48],rax
   200000855:	e8 a2 34 00 00       	call   200003cfc <_ZN6Stream10PackStringEP7_streamPc>
   20000085a:	48 8b 94 24 b0 00 00 	mov    rdx,QWORD PTR [rsp+0xb0]
   200000861:	00 
   200000862:	48 89 e9             	mov    rcx,rbp
   200000865:	e8 ca 32 00 00       	call   200003b34 <_ZN6Stream11PackDword64EP7_streamy>
   20000086a:	41 b8 04 01 00 00    	mov    r8d,0x104
   200000870:	31 d2                	xor    edx,edx
   200000872:	4c 89 e9             	mov    rcx,r13
   200000875:	e8 cb 11 00 00       	call   200001a45 <_Z8x_memsetPviy>
   20000087a:	41 b8 04 01 00 00    	mov    r8d,0x104
   200000880:	31 d2                	xor    edx,edx
   200000882:	4c 89 e1             	mov    rcx,r12
   200000885:	e8 bb 11 00 00       	call   200001a45 <_Z8x_memsetPviy>
   20000088a:	48 8b 84 24 90 00 00 	mov    rax,QWORD PTR [rsp+0x90]
   200000891:	00 
   200000892:	48 89 44 24 40       	mov    QWORD PTR [rsp+0x40],rax
   200000897:	e9 32 ff ff ff       	jmp    2000007ce <_ZN8Commands14ProcessModulesEP6PARSER+0x16c>
   20000089c:	48 81 c4 78 04 00 00 	add    rsp,0x478
   2000008a3:	5b                   	pop    rbx
   2000008a4:	5e                   	pop    rsi
   2000008a5:	5f                   	pop    rdi
   2000008a6:	5d                   	pop    rbp
   2000008a7:	41 5c                	pop    r12
   2000008a9:	41 5d                	pop    r13
   2000008ab:	41 5e                	pop    r14
   2000008ad:	41 5f                	pop    r15
   2000008af:	c3                   	ret

00000002000008b0 <_ZN8Commands8ShutdownEP6PARSER>:
   2000008b0:	48 83 ec 28          	sub    rsp,0x28
   2000008b4:	e8 5d f7 ff ff       	call   200000016 <InstStart>
   2000008b9:	48 8b 15 90 34 00 00 	mov    rdx,QWORD PTR [rip+0x3490]        # 200003d50 <.refptr.__InstanceOffset>
   2000008c0:	48 8b 04 10          	mov    rax,QWORD PTR [rax+rdx*1]
   2000008c4:	48 8b 40 08          	mov    rax,QWORD PTR [rax+0x8]
   2000008c8:	c7 40 68 c9 02 00 00 	mov    DWORD PTR [rax+0x68],0x2c9
   2000008cf:	48 83 c4 28          	add    rsp,0x28
   2000008d3:	c3                   	ret

00000002000008d4 <_ZN8Commands10UpdatePeerEP6PARSER>:
   2000008d4:	48 83 ec 38          	sub    rsp,0x38
   2000008d8:	48 89 4c 24 28       	mov    QWORD PTR [rsp+0x28],rcx
   2000008dd:	e8 34 f7 ff ff       	call   200000016 <InstStart>
   2000008e2:	48 8b 15 67 34 00 00 	mov    rdx,QWORD PTR [rip+0x3467]        # 200003d50 <.refptr.__InstanceOffset>
   2000008e9:	48 8b 4c 24 28       	mov    rcx,QWORD PTR [rsp+0x28]
   2000008ee:	48 8b 14 10          	mov    rdx,QWORD PTR [rax+rdx*1]
   2000008f2:	48 83 c4 38          	add    rsp,0x38
   2000008f6:	48 83 c2 68          	add    rdx,0x68
   2000008fa:	e9 c2 2e 00 00       	jmp    2000037c1 <_ZN6Parser12ParserWcscpyEP6PARSERPPw>
   2000008ff:	90                   	nop

0000000200000900 <ContextInit>:
   200000900:	57                   	push   rdi
   200000901:	31 c0                	xor    eax,eax
   200000903:	b9 22 01 00 00       	mov    ecx,0x122
   200000908:	31 d2                	xor    edx,edx
   20000090a:	56                   	push   rsi
   20000090b:	53                   	push   rbx
   20000090c:	48 81 ec d0 04 00 00 	sub    rsp,0x4d0
   200000913:	48 8d 7c 24 48       	lea    rdi,[rsp+0x48]
   200000918:	89 54 24 34          	mov    DWORD PTR [rsp+0x34],edx
   20000091c:	f3 ab                	rep stos DWORD PTR es:[rdi],eax
   20000091e:	31 c0                	xor    eax,eax
   200000920:	48 89 44 24 38       	mov    QWORD PTR [rsp+0x38],rax
   200000925:	48 89 44 24 40       	mov    QWORD PTR [rsp+0x40],rax
   20000092a:	65 48 8b 04 25 30 00 	mov    rax,QWORD PTR gs:0x30
   200000931:	00 00 
   200000933:	48 89 44 24 50       	mov    QWORD PTR [rsp+0x50],rax
   200000938:	48 8b 40 60          	mov    rax,QWORD PTR [rax+0x60]
   20000093c:	48 8b 40 30          	mov    rax,QWORD PTR [rax+0x30]
   200000940:	48 89 44 24 48       	mov    QWORD PTR [rsp+0x48],rax
   200000945:	e8 cc f6 ff ff       	call   200000016 <InstStart>
   20000094a:	48 89 44 24 60       	mov    QWORD PTR [rsp+0x60],rax
   20000094f:	e8 ac 36 00 00       	call   200004000 <InstEnd>
   200000954:	2b 44 24 60          	sub    eax,DWORD PTR [rsp+0x60]
   200000958:	89 44 24 68          	mov    DWORD PTR [rsp+0x68],eax
   20000095c:	e8 b5 f6 ff ff       	call   200000016 <InstStart>
   200000961:	48 8b 1d e8 33 00 00 	mov    rbx,QWORD PTR [rip+0x33e8]        # 200003d50 <.refptr.__InstanceOffset>
   200000968:	b9 3b 3b 2a a6       	mov    ecx,0xa62a3b3b
   20000096d:	48 c7 44 24 40 08 00 	mov    QWORD PTR [rsp+0x40],0x8
   200000974:	00 00 
   200000976:	48 01 d8             	add    rax,rbx
   200000979:	48 89 44 24 38       	mov    QWORD PTR [rsp+0x38],rax
   20000097e:	e8 cd 13 00 00       	call   200001d50 <_ZN6Memory19LdrGetModuleAddressEm>
   200000983:	48 89 44 24 70       	mov    QWORD PTR [rsp+0x70],rax
   200000988:	48 85 c0             	test   rax,rax
   20000098b:	0f 84 f9 00 00 00    	je     200000a8a <ContextInit+0x18a>
   200000991:	48 89 c1             	mov    rcx,rax
   200000994:	ba 26 99 79 bd       	mov    edx,0xbd799926
   200000999:	e8 11 14 00 00       	call   200001daf <_ZN6Memory19LdrGetSymbolAddressEP11HINSTANCE__m>
   20000099e:	48 89 84 24 60 01 00 	mov    QWORD PTR [rsp+0x160],rax
   2000009a5:	00 
   2000009a6:	48 85 c0             	test   rax,rax
   2000009a9:	0f 84 db 00 00 00    	je     200000a8a <ContextInit+0x18a>
   2000009af:	48 8b 4c 24 70       	mov    rcx,QWORD PTR [rsp+0x70]
   2000009b4:	ba f8 19 f8 b3       	mov    edx,0xb3f819f8
   2000009b9:	e8 f1 13 00 00       	call   200001daf <_ZN6Memory19LdrGetSymbolAddressEP11HINSTANCE__m>
   2000009be:	48 89 84 24 e0 01 00 	mov    QWORD PTR [rsp+0x1e0],rax
   2000009c5:	00 
   2000009c6:	48 85 c0             	test   rax,rax
   2000009c9:	0f 84 bb 00 00 00    	je     200000a8a <ContextInit+0x18a>
   2000009cf:	48 8b 4c 24 70       	mov    rcx,QWORD PTR [rsp+0x70]
   2000009d4:	ba af ca e8 46       	mov    edx,0x46e8caaf
   2000009d9:	e8 d1 13 00 00       	call   200001daf <_ZN6Memory19LdrGetSymbolAddressEP11HINSTANCE__m>
   2000009de:	48 89 84 24 08 02 00 	mov    QWORD PTR [rsp+0x208],rax
   2000009e5:	00 
   2000009e6:	48 85 c0             	test   rax,rax
   2000009e9:	0f 84 9b 00 00 00    	je     200000a8a <ContextInit+0x18a>
   2000009ef:	48 8d 44 24 34       	lea    rax,[rsp+0x34]
   2000009f4:	48 83 c9 ff          	or     rcx,0xffffffffffffffff
   2000009f8:	48 8d 54 24 38       	lea    rdx,[rsp+0x38]
   2000009fd:	41 b9 04 00 00 00    	mov    r9d,0x4
   200000a03:	48 89 44 24 20       	mov    QWORD PTR [rsp+0x20],rax
   200000a08:	4c 8d 44 24 40       	lea    r8,[rsp+0x40]
   200000a0d:	ff 94 24 60 01 00 00 	call   QWORD PTR [rsp+0x160]
   200000a14:	85 c0                	test   eax,eax
   200000a16:	78 72                	js     200000a8a <ContextInit+0x18a>
   200000a18:	e8 f9 f5 ff ff       	call   200000016 <InstStart>
   200000a1d:	48 8b 4c 24 48       	mov    rcx,QWORD PTR [rsp+0x48]
   200000a22:	41 b8 88 04 00 00    	mov    r8d,0x488
   200000a28:	ba 08 00 00 00       	mov    edx,0x8
   200000a2d:	48 01 c3             	add    rbx,rax
   200000a30:	48 89 5c 24 38       	mov    QWORD PTR [rsp+0x38],rbx
   200000a35:	ff 94 24 e0 01 00 00 	call   QWORD PTR [rsp+0x1e0]
   200000a3c:	48 89 03             	mov    QWORD PTR [rbx],rax
   200000a3f:	48 85 c0             	test   rax,rax
   200000a42:	74 46                	je     200000a8a <ContextInit+0x18a>
   200000a44:	48 8b 44 24 38       	mov    rax,QWORD PTR [rsp+0x38]
   200000a49:	48 8d 74 24 48       	lea    rsi,[rsp+0x48]
   200000a4e:	41 b8 88 04 00 00    	mov    r8d,0x488
   200000a54:	48 89 f2             	mov    rdx,rsi
   200000a57:	48 8b 08             	mov    rcx,QWORD PTR [rax]
   200000a5a:	e8 d1 0f 00 00       	call   200001a30 <_Z8x_memcpyPvPKvy>
   200000a5f:	41 b8 88 04 00 00    	mov    r8d,0x488
   200000a65:	31 d2                	xor    edx,edx
   200000a67:	48 89 f1             	mov    rcx,rsi
   200000a6a:	e8 d6 0f 00 00       	call   200001a45 <_Z8x_memsetPviy>
   200000a6f:	48 8b 44 24 38       	mov    rax,QWORD PTR [rsp+0x38]
   200000a74:	41 b8 0e 00 00 00    	mov    r8d,0xe
   200000a7a:	31 d2                	xor    edx,edx
   200000a7c:	48 8d 48 08          	lea    rcx,[rax+0x8]
   200000a80:	e8 c0 0f 00 00       	call   200001a45 <_Z8x_memsetPviy>
   200000a85:	e8 f2 0e 00 00       	call   20000197c <_ZN4Core11MainRoutineEv>
   200000a8a:	48 81 c4 d0 04 00 00 	add    rsp,0x4d0
   200000a91:	5b                   	pop    rbx
   200000a92:	5e                   	pop    rsi
   200000a93:	5f                   	pop    rdi
   200000a94:	c3                   	ret
   200000a95:	90                   	nop
   200000a96:	90                   	nop
   200000a97:	90                   	nop
   200000a98:	90                   	nop
   200000a99:	90                   	nop
   200000a9a:	90                   	nop
   200000a9b:	90                   	nop
   200000a9c:	90                   	nop
   200000a9d:	90                   	nop
   200000a9e:	90                   	nop
   200000a9f:	90                   	nop

0000000200000aa0 <_ZN4Core10ReadConfigEv>:
   200000aa0:	57                   	push   rdi
   200000aa1:	56                   	push   rsi
   200000aa2:	53                   	push   rbx
   200000aa3:	48 83 ec 50          	sub    rsp,0x50
   200000aa7:	e8 6a f5 ff ff       	call   200000016 <InstStart>
   200000aac:	48 8b 15 9d 32 00 00 	mov    rdx,QWORD PTR [rip+0x329d]        # 200003d50 <.refptr.__InstanceOffset>
   200000ab3:	45 31 c0             	xor    r8d,r8d
   200000ab6:	48 8d 7c 24 38       	lea    rdi,[rsp+0x38]
   200000abb:	b9 06 00 00 00       	mov    ecx,0x6
   200000ac0:	48 8d 74 24 38       	lea    rsi,[rsp+0x38]
   200000ac5:	48 8b 1c 10          	mov    rbx,QWORD PTR [rax+rdx*1]
   200000ac9:	31 c0                	xor    eax,eax
   200000acb:	4c 89 44 24 30       	mov    QWORD PTR [rsp+0x30],r8
   200000ad0:	41 b8 00 02 00 00    	mov    r8d,0x200
   200000ad6:	f3 ab                	rep stos DWORD PTR es:[rdi],eax
   200000ad8:	48 8d 3d 41 35 00 00 	lea    rdi,[rip+0x3541]        # 200004020 <Config>
   200000adf:	48 89 f1             	mov    rcx,rsi
   200000ae2:	48 c7 44 24 28 65 00 	mov    QWORD PTR [rsp+0x28],0x65
   200000ae9:	00 00 
   200000aeb:	c7 43 10 01 00 00 00 	mov    DWORD PTR [rbx+0x10],0x1
   200000af2:	48 89 fa             	mov    rdx,rdi
   200000af5:	e8 66 29 00 00       	call   200003460 <_ZN6Parser12CreateParserEP6PARSERPhm>
   200000afa:	48 89 f9             	mov    rcx,rdi
   200000afd:	41 b8 00 02 00 00    	mov    r8d,0x200
   200000b03:	31 d2                	xor    edx,edx
   200000b05:	e8 3b 0f 00 00       	call   200001a45 <_Z8x_memsetPviy>
   200000b0a:	8b 54 24 48          	mov    edx,DWORD PTR [rsp+0x48]
   200000b0e:	48 8b 4c 24 38       	mov    rcx,QWORD PTR [rsp+0x38]
   200000b13:	45 31 c9             	xor    r9d,r9d
   200000b16:	4c 8d 44 24 28       	lea    r8,[rsp+0x28]
   200000b1b:	e8 9b f7 ff ff       	call   2000002bb <_ZN4Xtea9XteaCryptEPhyS0_i>
   200000b20:	48 8d 53 58          	lea    rdx,[rbx+0x58]
   200000b24:	48 89 f1             	mov    rcx,rsi
   200000b27:	e8 af 2b 00 00       	call   2000036db <_ZN6Parser12ParserMemcpyEP6PARSERPPh>
   200000b2c:	48 8d 93 88 00 00 00 	lea    rdx,[rbx+0x88]
   200000b33:	48 89 f1             	mov    rcx,rsi
   200000b36:	e8 13 2c 00 00       	call   20000374e <_ZN6Parser12ParserStrcpyEP6PARSERPPc>
   200000b3b:	48 8d 93 80 00 00 00 	lea    rdx,[rbx+0x80]
   200000b42:	48 89 f1             	mov    rcx,rsi
   200000b45:	e8 04 2c 00 00       	call   20000374e <_ZN6Parser12ParserStrcpyEP6PARSERPPc>
   200000b4a:	48 8d 53 68          	lea    rdx,[rbx+0x68]
   200000b4e:	48 89 f1             	mov    rcx,rsi
   200000b51:	e8 6b 2c 00 00       	call   2000037c1 <_ZN6Parser12ParserWcscpyEP6PARSERPPw>
   200000b56:	48 89 f1             	mov    rcx,rsi
   200000b59:	e8 2b 2a 00 00       	call   200003589 <_ZN6Parser11UnpackDwordEP6PARSER>
   200000b5e:	48 89 f1             	mov    rcx,rsi
   200000b61:	89 83 d0 00 00 00    	mov    DWORD PTR [rbx+0xd0],eax
   200000b67:	e8 1d 2a 00 00       	call   200003589 <_ZN6Parser11UnpackDwordEP6PARSER>
   200000b6c:	48 89 f1             	mov    rcx,rsi
   200000b6f:	89 83 90 00 00 00    	mov    DWORD PTR [rbx+0x90],eax
   200000b75:	e8 0f 2a 00 00       	call   200003589 <_ZN6Parser11UnpackDwordEP6PARSER>
   200000b7a:	48 89 f1             	mov    rcx,rsi
   200000b7d:	89 83 94 00 00 00    	mov    DWORD PTR [rbx+0x94],eax
   200000b83:	e8 01 2a 00 00       	call   200003589 <_ZN6Parser11UnpackDwordEP6PARSER>
   200000b88:	48 89 f1             	mov    rcx,rsi
   200000b8b:	89 83 98 00 00 00    	mov    DWORD PTR [rbx+0x98],eax
   200000b91:	e8 3d 2a 00 00       	call   2000035d3 <_ZN6Parser13UnpackDword64EP6PARSER>
   200000b96:	45 31 c9             	xor    r9d,r9d
   200000b99:	41 b8 68 00 00 00    	mov    r8d,0x68
   200000b9f:	31 d2                	xor    edx,edx
   200000ba1:	4c 89 4b 68          	mov    QWORD PTR [rbx+0x68],r9
   200000ba5:	48 8b 0b             	mov    rcx,QWORD PTR [rbx]
   200000ba8:	4c 89 8b 00 01 00 00 	mov    QWORD PTR [rbx+0x100],r9
   200000baf:	48 89 83 a0 00 00 00 	mov    QWORD PTR [rbx+0xa0],rax
   200000bb6:	ff 93 98 01 00 00    	call   QWORD PTR [rbx+0x198]
   200000bbc:	45 31 d2             	xor    r10d,r10d
   200000bbf:	48 89 f1             	mov    rcx,rsi
   200000bc2:	48 89 83 f8 00 00 00 	mov    QWORD PTR [rbx+0xf8],rax
   200000bc9:	48 89 c2             	mov    rdx,rax
   200000bcc:	4c 89 50 48          	mov    QWORD PTR [rax+0x48],r10
   200000bd0:	4c 89 50 58          	mov    QWORD PTR [rax+0x58],r10
   200000bd4:	4c 89 50 60          	mov    QWORD PTR [rax+0x60],r10
   200000bd8:	e8 e4 2b 00 00       	call   2000037c1 <_ZN6Parser12ParserWcscpyEP6PARSERPPw>
   200000bdd:	48 8b 83 f8 00 00 00 	mov    rax,QWORD PTR [rbx+0xf8]
   200000be4:	48 89 f1             	mov    rcx,rsi
   200000be7:	48 8d 50 10          	lea    rdx,[rax+0x10]
   200000beb:	e8 d1 2b 00 00       	call   2000037c1 <_ZN6Parser12ParserWcscpyEP6PARSERPPw>
   200000bf0:	48 89 f1             	mov    rcx,rsi
   200000bf3:	e8 91 29 00 00       	call   200003589 <_ZN6Parser11UnpackDwordEP6PARSER>
   200000bf8:	48 8b bb f8 00 00 00 	mov    rdi,QWORD PTR [rbx+0xf8]
   200000bff:	48 89 f1             	mov    rcx,rsi
   200000c02:	89 47 18             	mov    DWORD PTR [rdi+0x18],eax
   200000c05:	e8 7f 29 00 00       	call   200003589 <_ZN6Parser11UnpackDwordEP6PARSER>
   200000c0a:	48 8b 0b             	mov    rcx,QWORD PTR [rbx]
   200000c0d:	31 d2                	xor    edx,edx
   200000c0f:	89 47 50             	mov    DWORD PTR [rdi+0x50],eax
   200000c12:	48 8b bb f8 00 00 00 	mov    rdi,QWORD PTR [rbx+0xf8]
   200000c19:	8b 47 50             	mov    eax,DWORD PTR [rdi+0x50]
   200000c1c:	8d 44 00 02          	lea    eax,[rax+rax*1+0x2]
   200000c20:	4c 8d 04 c5 00 00 00 	lea    r8,[rax*8+0x0]
   200000c27:	00 
   200000c28:	ff 93 98 01 00 00    	call   QWORD PTR [rbx+0x198]
   200000c2e:	48 89 47 58          	mov    QWORD PTR [rdi+0x58],rax
   200000c32:	31 ff                	xor    edi,edi
   200000c34:	48 8b 83 f8 00 00 00 	mov    rax,QWORD PTR [rbx+0xf8]
   200000c3b:	8b 50 50             	mov    edx,DWORD PTR [rax+0x50]
   200000c3e:	48 8b 40 58          	mov    rax,QWORD PTR [rax+0x58]
   200000c42:	39 d7                	cmp    edi,edx
200000c44:	73 11                	jae    200000c57 <_ZN4Core10ReadConfigEv+0x1b7>
200000c46:	48 8d 14 f8          	lea    rdx,[rax+rdi*8]
200000c4a:	48 89 f1             	mov    rcx,rsi
200000c4d:	48 ff c7             	inc    rdi
200000c50:	e8 6c 2b 00 00       	call   2000037c1 <_ZN6Parser12ParserWcscpyEP6PARSERPPw>
200000c55:	eb dd                	jmp    200000c34 <_ZN4Core10ReadConfigEv+0x194>
200000c57:	ff c2                	inc    edx
200000c59:	31 c9                	xor    ecx,ecx
200000c5b:	48 89 0c d0          	mov    QWORD PTR [rax+rdx*8],rcx
200000c5f:	48 89 f1             	mov    rcx,rsi
200000c62:	e8 b9 29 00 00       	call   200003620 <_ZN6Parser10UnpackBoolEP6PARSER>
200000c67:	48 8b 93 f8 00 00 00 	mov    rdx,QWORD PTR [rbx+0xf8]
200000c6e:	85 c0                	test   eax,eax
200000c70:	89 83 dc 00 00 00    	mov    DWORD PTR [rbx+0xdc],eax
200000c76:	74 3b                	je     200000cb3 <_ZN4Core10ReadConfigEv+0x213>
200000c78:	c7 42 40 03 00 00 00 	mov    DWORD PTR [rdx+0x40],0x3
200000c7f:	48 89 f1             	mov    rcx,rsi
200000c82:	48 83 c2 20          	add    rdx,0x20
200000c86:	e8 36 2b 00 00       	call   2000037c1 <_ZN6Parser12ParserWcscpyEP6PARSERPPw>
200000c8b:	48 8b 83 f8 00 00 00 	mov    rax,QWORD PTR [rbx+0xf8]
200000c92:	48 89 f1             	mov    rcx,rsi
200000c95:	48 8d 50 28          	lea    rdx,[rax+0x28]
200000c99:	e8 23 2b 00 00       	call   2000037c1 <_ZN6Parser12ParserWcscpyEP6PARSERPPw>
200000c9e:	48 8b 93 f8 00 00 00 	mov    rdx,QWORD PTR [rbx+0xf8]
200000ca5:	48 89 f1             	mov    rcx,rsi
200000ca8:	48 83 c2 30          	add    rdx,0x30
200000cac:	e8 10 2b 00 00       	call   2000037c1 <_ZN6Parser12ParserWcscpyEP6PARSERPPw>
200000cb1:	eb 0a                	jmp    200000cbd <_ZN4Core10ReadConfigEv+0x21d>
200000cb3:	31 c0                	xor    eax,eax
200000cb5:	48 89 42 28          	mov    QWORD PTR [rdx+0x28],rax
200000cb9:	48 89 42 30          	mov    QWORD PTR [rdx+0x30],rax
200000cbd:	48 89 f1             	mov    rcx,rsi
200000cc0:	e8 00 28 00 00       	call   2000034c5 <_ZN6Parser13DestroyParserEP6PARSER>
200000cc5:	48 83 c4 50          	add    rsp,0x50
200000cc9:	5b                   	pop    rbx
200000cca:	5e                   	pop    rsi
200000ccb:	5f                   	pop    rdi
200000ccc:	c3                   	ret

0000000200000ccd <_ZN4Core10ResolveApiEv>:
200000ccd:	57                   	push   rdi
200000cce:	56                   	push   rsi
200000ccf:	53                   	push   rbx
200000cd0:	48 81 ec 50 01 00 00 	sub    rsp,0x150
200000cd7:	e8 3a f3 ff ff       	call   200000016 <InstStart>
200000cdc:	48 8b 15 6d 30 00 00 	mov    rdx,QWORD PTR [rip+0x306d]        # 200003d50 <.refptr.__InstanceOffset>
200000ce3:	48 8b 1c 10          	mov    rbx,QWORD PTR [rax+rdx*1]
200000ce7:	cc                   	int3
200000ce8:	31 f6                	xor    esi,esi
200000cea:	48 8d 7c 24 20       	lea    rdi,[rsp+0x20]
200000cef:	b9 06 00 00 00       	mov    ecx,0x6
200000cf4:	41 b8 00 01 00 00    	mov    r8d,0x100
200000cfa:	89 f0                	mov    eax,esi
200000cfc:	f3 ab                	rep stos DWORD PTR es:[rdi],eax
200000cfe:	48 8d 3d 1b 35 00 00 	lea    rdi,[rip+0x351b]        # 200004220 <Strings>
200000d05:	48 8d 4c 24 20       	lea    rcx,[rsp+0x20]
200000d0a:	48 89 fa             	mov    rdx,rdi
200000d0d:	e8 4e 27 00 00       	call   200003460 <_ZN6Parser12CreateParserEP6PARSERPhm>
200000d12:	41 b8 00 01 00 00    	mov    r8d,0x100
200000d18:	31 d2                	xor    edx,edx
200000d1a:	48 89 f9             	mov    rcx,rdi
200000d1d:	e8 23 0d 00 00       	call   200001a45 <_Z8x_memsetPviy>
200000d22:	48 8d 7c 24 3c       	lea    rdi,[rsp+0x3c]
200000d27:	89 f0                	mov    eax,esi
200000d29:	b9 45 00 00 00       	mov    ecx,0x45
200000d2e:	f3 ab                	rep stos DWORD PTR es:[rdi],eax
200000d30:	b9 3b 3b 2a a6       	mov    ecx,0xa62a3b3b
200000d35:	e8 16 10 00 00       	call   200001d50 <_ZN6Memory19LdrGetModuleAddressEm>
200000d3a:	ba 31 5e c9 cd       	mov    edx,0xcdc95e31
200000d3f:	48 89 c1             	mov    rcx,rax
200000d42:	e8 68 10 00 00       	call   200001daf <_ZN6Memory19LdrGetSymbolAddressEP11HINSTANCE__m>
200000d47:	48 89 83 10 02 00 00 	mov    QWORD PTR [rbx+0x210],rax
200000d4e:	48 85 c0             	test   rax,rax
200000d51:	0f 84 0f 0c 00 00    	je     200001966 <_ZN4Core10ResolveApiEv+0xc99>
200000d57:	31 d2                	xor    edx,edx
200000d59:	c7 44 24 3c 14 01 00 	mov    DWORD PTR [rsp+0x3c],0x114
200000d60:	00
200000d61:	48 8d 4c 24 3c       	lea    rcx,[rsp+0x3c]
200000d66:	89 93 c0 00 00 00    	mov    DWORD PTR [rbx+0xc0],edx
200000d6c:	ff d0                	call   rax
200000d6e:	85 c0                	test   eax,eax
200000d70:	0f 88 f0 0b 00 00    	js     200001966 <_ZN4Core10ResolveApiEv+0xc99>
200000d76:	8b 44 24 40          	mov    eax,DWORD PTR [rsp+0x40]
200000d7a:	83 f8 04             	cmp    eax,0x4
200000d7d:	76 7c                	jbe    200000dfb <_ZN4Core10ResolveApiEv+0x12e>
200000d7f:	83 f8 05             	cmp    eax,0x5
200000d82:	75 13                	jne    200000d97 <_ZN4Core10ResolveApiEv+0xca>
200000d84:	83 7c 24 44 01       	cmp    DWORD PTR [rsp+0x44],0x1
200000d89:	75 70                	jne    200000dfb <_ZN4Core10ResolveApiEv+0x12e>
200000d8b:	c7 83 c0 00 00 00 01 	mov    DWORD PTR [rbx+0xc0],0x1
200000d92:	00 00 00
200000d95:	eb 74                	jmp    200000e0b <_ZN4Core10ResolveApiEv+0x13e>
200000d97:	83 f8 06             	cmp    eax,0x6
200000d9a:	75 47                	jne    200000de3 <_ZN4Core10ResolveApiEv+0x116>
200000d9c:	8b 44 24 44          	mov    eax,DWORD PTR [rsp+0x44]
200000da0:	85 c0                	test   eax,eax
200000da2:	75 0c                	jne    200000db0 <_ZN4Core10ResolveApiEv+0xe3>
200000da4:	c7 83 c0 00 00 00 03 	mov    DWORD PTR [rbx+0xc0],0x3
200000dab:	00 00 00
200000dae:	eb 5b                	jmp    200000e0b <_ZN4Core10ResolveApiEv+0x13e>
200000db0:	83 f8 01             	cmp    eax,0x1
200000db3:	75 0c                	jne    200000dc1 <_ZN4Core10ResolveApiEv+0xf4>
200000db5:	c7 83 c0 00 00 00 05 	mov    DWORD PTR [rbx+0xc0],0x5
200000dbc:	00 00 00
200000dbf:	eb 4a                	jmp    200000e0b <_ZN4Core10ResolveApiEv+0x13e>
200000dc1:	83 f8 02             	cmp    eax,0x2
200000dc4:	75 0c                	jne    200000dd2 <_ZN4Core10ResolveApiEv+0x105>
200000dc6:	c7 83 c0 00 00 00 07 	mov    DWORD PTR [rbx+0xc0],0x7
200000dcd:	00 00 00
200000dd0:	eb 39                	jmp    200000e0b <_ZN4Core10ResolveApiEv+0x13e>
200000dd2:	83 f8 03             	cmp    eax,0x3
200000dd5:	75 24                	jne    200000dfb <_ZN4Core10ResolveApiEv+0x12e>
200000dd7:	c7 83 c0 00 00 00 09 	mov    DWORD PTR [rbx+0xc0],0x9
200000dde:	00 00 00
200000de1:	eb 28                	jmp    200000e0b <_ZN4Core10ResolveApiEv+0x13e>
200000de3:	83 f8 0a             	cmp    eax,0xa
200000de6:	75 13                	jne    200000dfb <_ZN4Core10ResolveApiEv+0x12e>
200000de8:	83 7c 24 44 00       	cmp    DWORD PTR [rsp+0x44],0x0
200000ded:	75 0c                	jne    200000dfb <_ZN4Core10ResolveApiEv+0x12e>
200000def:	c7 83 c0 00 00 00 0b 	mov    DWORD PTR [rbx+0xc0],0xb
200000df6:	00 00 00
200000df9:	eb 09                	jmp    200000e04 <_ZN4Core10ResolveApiEv+0x137>
200000dfb:	83 bb c0 00 00 00 0a 	cmp    DWORD PTR [rbx+0xc0],0xa
200000e02:	76 07                	jbe    200000e0b <_ZN4Core10ResolveApiEv+0x13e>
200000e04:	b9 63 d4 cd 29       	mov    ecx,0x29cdd463
200000e09:	eb 05                	jmp    200000e10 <_ZN4Core10ResolveApiEv+0x143>
200000e0b:	b9 c3 87 08 6c       	mov    ecx,0x6c0887c3
200000e10:	e8 3b 0f 00 00       	call   200001d50 <_ZN6Memory19LdrGetModuleAddressEm>
200000e15:	48 89 43 30          	mov    QWORD PTR [rbx+0x30],rax
200000e19:	48 89 c1             	mov    rcx,rax
200000e1c:	48 85 c0             	test   rax,rax
200000e1f:	0f 84 41 0b 00 00    	je     200001966 <_ZN4Core10ResolveApiEv+0xc99>
200000e25:	ba 37 df 56 50       	mov    edx,0x5056df37
200000e2a:	e8 80 0f 00 00       	call   200001daf <_ZN6Memory19LdrGetSymbolAddressEP11HINSTANCE__m>
200000e2f:	48 89 83 a8 02 00 00 	mov    QWORD PTR [rbx+0x2a8],rax
200000e36:	48 85 c0             	test   rax,rax
200000e39:	0f 84 27 0b 00 00    	je     200001966 <_ZN4Core10ResolveApiEv+0xc99>
200000e3f:	48 8b 4b 30          	mov    rcx,QWORD PTR [rbx+0x30]
200000e43:	ba cb 33 34 c0       	mov    edx,0xc03433cb
200000e48:	e8 62 0f 00 00       	call   200001daf <_ZN6Memory19LdrGetSymbolAddressEP11HINSTANCE__m>
200000e4d:	48 89 83 48 02 00 00 	mov    QWORD PTR [rbx+0x248],rax
200000e54:	48 85 c0             	test   rax,rax
200000e57:	0f 84 09 0b 00 00    	je     200001966 <_ZN4Core10ResolveApiEv+0xc99>
200000e5d:	48 8b 4b 30          	mov    rcx,QWORD PTR [rbx+0x30]
200000e61:	ba f6 de 5d 84       	mov    edx,0x845ddef6
200000e66:	e8 44 0f 00 00       	call   200001daf <_ZN6Memory19LdrGetSymbolAddressEP11HINSTANCE__m>
200000e6b:	48 89 83 90 02 00 00 	mov    QWORD PTR [rbx+0x290],rax
200000e72:	48 85 c0             	test   rax,rax
200000e75:	0f 84 eb 0a 00 00    	je     200001966 <_ZN4Core10ResolveApiEv+0xc99>
200000e7b:	e8 95 21 00 00       	call   200003015 <_Z15SeCheckDebuggerv>
200000e80:	48 8b 43 08          	mov    rax,QWORD PTR [rbx+0x8]
200000e84:	83 78 68 00          	cmp    DWORD PTR [rax+0x68],0x0
200000e88:	75 0f                	jne    200000e99 <_ZN4Core10ResolveApiEv+0x1cc>
200000e8a:	e8 01 22 00 00       	call   200003090 <_Z14SeCheckSandboxv>
200000e8f:	48 8b 43 08          	mov    rax,QWORD PTR [rbx+0x8]
200000e93:	83 78 68 00          	cmp    DWORD PTR [rax+0x68],0x0
200000e97:	74 1a                	je     200000eb3 <_ZN4Core10ResolveApiEv+0x1e6>
200000e99:	b9 40 1f 00 00       	mov    ecx,0x1f40
200000e9e:	e8 1d 37 00 00       	call   2000045c0 <_ZN6Random7TimeoutEy>
200000ea3:	48 8b 43 08          	mov    rax,QWORD PTR [rbx+0x8]
200000ea7:	c7 40 68 0a 00 00 00 	mov    DWORD PTR [rax+0x68],0xa
200000eae:	e9 be 0a 00 00       	jmp    200001971 <_ZN4Core10ResolveApiEv+0xca4>
200000eb3:	48 8b 4b 28          	mov    rcx,QWORD PTR [rbx+0x28]
200000eb7:	ba 78 b9 67 ca       	mov    edx,0xca67b978
200000ebc:	e8 ee 0e 00 00       	call   200001daf <_ZN6Memory19LdrGetSymbolAddressEP11HINSTANCE__m>
200000ec1:	48 89 83 10 01 00 00 	mov    QWORD PTR [rbx+0x110],rax
200000ec8:	48 85 c0             	test   rax,rax
200000ecb:	0f 84 95 0a 00 00    	je     200001966 <_ZN4Core10ResolveApiEv+0xc99>
200000ed1:	48 8b 4b 28          	mov    rcx,QWORD PTR [rbx+0x28]
200000ed5:	ba f8 19 f8 b3       	mov    edx,0xb3f819f8
200000eda:	e8 d0 0e 00 00       	call   200001daf <_ZN6Memory19LdrGetSymbolAddressEP11HINSTANCE__m>
200000edf:	48 89 83 98 01 00 00 	mov    QWORD PTR [rbx+0x198],rax
200000ee6:	48 85 c0             	test   rax,rax
200000ee9:	0f 84 77 0a 00 00    	je     200001966 <_ZN4Core10ResolveApiEv+0xc99>
200000eef:	48 8b 4b 28          	mov    rcx,QWORD PTR [rbx+0x28]
200000ef3:	ba 67 c5 1c b5       	mov    edx,0xb51cc567
200000ef8:	e8 b2 0e 00 00       	call   200001daf <_ZN6Memory19LdrGetSymbolAddressEP11HINSTANCE__m>
200000efd:	48 89 83 08 01 00 00 	mov    QWORD PTR [rbx+0x108],rax
200000f04:	48 85 c0             	test   rax,rax
200000f07:	0f 84 59 0a 00 00    	je     200001966 <_ZN4Core10ResolveApiEv+0xc99>
200000f0d:	48 8b 4b 28          	mov    rcx,QWORD PTR [rbx+0x28]
200000f11:	ba 91 03 2a 6e       	mov    edx,0x6e2a0391
200000f16:	e8 94 0e 00 00       	call   200001daf <_ZN6Memory19LdrGetSymbolAddressEP11HINSTANCE__m>
200000f1b:	48 89 83 20 01 00 00 	mov    QWORD PTR [rbx+0x120],rax
200000f22:	48 85 c0             	test   rax,rax
200000f25:	0f 84 3b 0a 00 00    	je     200001966 <_ZN4Core10ResolveApiEv+0xc99>
200000f2b:	48 8b 4b 28          	mov    rcx,QWORD PTR [rbx+0x28]
200000f2f:	ba 32 2f e3 43       	mov    edx,0x43e32f32
200000f34:	e8 76 0e 00 00       	call   200001daf <_ZN6Memory19LdrGetSymbolAddressEP11HINSTANCE__m>
200000f39:	48 89 83 28 01 00 00 	mov    QWORD PTR [rbx+0x128],rax
200000f40:	48 85 c0             	test   rax,rax
200000f43:	0f 84 1d 0a 00 00    	je     200001966 <_ZN4Core10ResolveApiEv+0xc99>
200000f49:	48 8b 4b 28          	mov    rcx,QWORD PTR [rbx+0x28]
200000f4d:	ba 1f 76 4e be       	mov    edx,0xbe4e761f
200000f52:	e8 58 0e 00 00       	call   200001daf <_ZN6Memory19LdrGetSymbolAddressEP11HINSTANCE__m>
200000f57:	48 89 83 30 01 00 00 	mov    QWORD PTR [rbx+0x130],rax
200000f5e:	48 85 c0             	test   rax,rax
200000f61:	0f 84 ff 09 00 00    	je     200001966 <_ZN4Core10ResolveApiEv+0xc99>
200000f67:	48 8b 4b 28          	mov    rcx,QWORD PTR [rbx+0x28]
200000f6b:	ba 62 f3 59 3c       	mov    edx,0x3c59f362
200000f70:	e8 3a 0e 00 00       	call   200001daf <_ZN6Memory19LdrGetSymbolAddressEP11HINSTANCE__m>
200000f75:	48 89 83 38 01 00 00 	mov    QWORD PTR [rbx+0x138],rax
200000f7c:	48 85 c0             	test   rax,rax
200000f7f:	0f 84 e1 09 00 00    	je     200001966 <_ZN4Core10ResolveApiEv+0xc99>
200000f85:	48 8b 4b 28          	mov    rcx,QWORD PTR [rbx+0x28]
200000f89:	ba ae e1 c9 cb       	mov    edx,0xcbc9e1ae
200000f8e:	e8 1c 0e 00 00       	call   200001daf <_ZN6Memory19LdrGetSymbolAddressEP11HINSTANCE__m>
200000f93:	48 89 83 40 01 00 00 	mov    QWORD PTR [rbx+0x140],rax
200000f9a:	48 85 c0             	test   rax,rax
200000f9d:	0f 84 c3 09 00 00    	je     200001966 <_ZN4Core10ResolveApiEv+0xc99>
200000fa3:	48 8b 4b 28          	mov    rcx,QWORD PTR [rbx+0x28]
200000fa7:	ba c5 08 b8 53       	mov    edx,0x53b808c5
200000fac:	e8 fe 0d 00 00       	call   200001daf <_ZN6Memory19LdrGetSymbolAddressEP11HINSTANCE__m>
200000fb1:	48 89 83 48 01 00 00 	mov    QWORD PTR [rbx+0x148],rax
200000fb8:	48 85 c0             	test   rax,rax
200000fbb:	0f 84 a5 09 00 00    	je     200001966 <_ZN4Core10ResolveApiEv+0xc99>
200000fc1:	48 8b 4b 28          	mov    rcx,QWORD PTR [rbx+0x28]
200000fc5:	ba e9 93 68 11       	mov    edx,0x116893e9
200000fca:	e8 e0 0d 00 00       	call   200001daf <_ZN6Memory19LdrGetSymbolAddressEP11HINSTANCE__m>
200000fcf:	48 89 83 58 01 00 00 	mov    QWORD PTR [rbx+0x158],rax
200000fd6:	48 85 c0             	test   rax,rax
200000fd9:	0f 84 87 09 00 00    	je     200001966 <_ZN4Core10ResolveApiEv+0xc99>
200000fdf:	48 8b 4b 28          	mov    rcx,QWORD PTR [rbx+0x28]
200000fe3:	ba 87 8e 2f 1f       	mov    edx,0x1f2f8e87
200000fe8:	e8 c2 0d 00 00       	call   200001daf <_ZN6Memory19LdrGetSymbolAddressEP11HINSTANCE__m>
200000fed:	48 89 83 60 01 00 00 	mov    QWORD PTR [rbx+0x160],rax
200000ff4:	48 85 c0             	test   rax,rax
200000ff7:	0f 84 69 09 00 00    	je     200001966 <_ZN4Core10ResolveApiEv+0xc99>
200000ffd:	48 8b 4b 28          	mov    rcx,QWORD PTR [rbx+0x28]
200001001:	ba 38 9a a4 5e       	mov    edx,0x5ea49a38
200001006:	e8 a4 0d 00 00       	call   200001daf <_ZN6Memory19LdrGetSymbolAddressEP11HINSTANCE__m>
20000100b:	48 89 83 50 01 00 00 	mov    QWORD PTR [rbx+0x150],rax
200001012:	48 85 c0             	test   rax,rax
200001015:	0f 84 4b 09 00 00    	je     200001966 <_ZN4Core10ResolveApiEv+0xc99>
20000101b:	48 8b 4b 28          	mov    rcx,QWORD PTR [rbx+0x28]
20000101f:	ba ad 92 1a 1f       	mov    edx,0x1f1a92ad
200001024:	e8 86 0d 00 00       	call   200001daf <_ZN6Memory19LdrGetSymbolAddressEP11HINSTANCE__m>
200001029:	48 89 83 78 01 00 00 	mov    QWORD PTR [rbx+0x178],rax
200001030:	48 85 c0             	test   rax,rax
200001033:	0f 84 2d 09 00 00    	je     200001966 <_ZN4Core10ResolveApiEv+0xc99>
200001039:	48 8b 4b 28          	mov    rcx,QWORD PTR [rbx+0x28]
20000103d:	ba a2 72 7c 10       	mov    edx,0x107c72a2
200001042:	e8 68 0d 00 00       	call   200001daf <_ZN6Memory19LdrGetSymbolAddressEP11HINSTANCE__m>
200001047:	48 89 83 80 01 00 00 	mov    QWORD PTR [rbx+0x180],rax
20000104e:	48 85 c0             	test   rax,rax
200001051:	0f 84 0f 09 00 00    	je     200001966 <_ZN4Core10ResolveApiEv+0xc99>
200001057:	48 8b 4b 28          	mov    rcx,QWORD PTR [rbx+0x28]
20000105b:	ba 8a da 2d ea       	mov    edx,0xea2dda8a
200001060:	e8 4a 0d 00 00       	call   200001daf <_ZN6Memory19LdrGetSymbolAddressEP11HINSTANCE__m>
200001065:	48 89 83 88 01 00 00 	mov    QWORD PTR [rbx+0x188],rax
20000106c:	48 85 c0             	test   rax,rax
20000106f:	0f 84 f1 08 00 00    	je     200001966 <_ZN4Core10ResolveApiEv+0xc99>
200001075:	48 8b 4b 28          	mov    rcx,QWORD PTR [rbx+0x28]
200001079:	ba 4a 97 43 7a       	mov    edx,0x7a43974a
20000107e:	e8 2c 0d 00 00       	call   200001daf <_ZN6Memory19LdrGetSymbolAddressEP11HINSTANCE__m>
200001083:	48 89 83 18 02 00 00 	mov    QWORD PTR [rbx+0x218],rax
20000108a:	48 85 c0             	test   rax,rax
20000108d:	0f 84 d3 08 00 00    	je     200001966 <_ZN4Core10ResolveApiEv+0xc99>
200001093:	48 8b 4b 28          	mov    rcx,QWORD PTR [rbx+0x28]
200001097:	ba 05 2c 37 6b       	mov    edx,0x6b372c05
20000109c:	e8 0e 0d 00 00       	call   200001daf <_ZN6Memory19LdrGetSymbolAddressEP11HINSTANCE__m>
2000010a1:	48 89 83 08 02 00 00 	mov    QWORD PTR [rbx+0x208],rax
2000010a8:	48 85 c0             	test   rax,rax
2000010ab:	0f 84 b5 08 00 00    	je     200001966 <_ZN4Core10ResolveApiEv+0xc99>
2000010b1:	48 8b 4b 28          	mov    rcx,QWORD PTR [rbx+0x28]
2000010b5:	ba af ca e8 46       	mov    edx,0x46e8caaf
2000010ba:	e8 f0 0c 00 00       	call   200001daf <_ZN6Memory19LdrGetSymbolAddressEP11HINSTANCE__m>
2000010bf:	48 89 83 c0 01 00 00 	mov    QWORD PTR [rbx+0x1c0],rax
2000010c6:	48 85 c0             	test   rax,rax
2000010c9:	0f 84 97 08 00 00    	je     200001966 <_ZN4Core10ResolveApiEv+0xc99>
2000010cf:	48 8b 4b 28          	mov    rcx,QWORD PTR [rbx+0x28]
2000010d3:	ba fc 37 64 e0       	mov    edx,0xe06437fc
2000010d8:	e8 d2 0c 00 00       	call   200001daf <_ZN6Memory19LdrGetSymbolAddressEP11HINSTANCE__m>
2000010dd:	48 89 83 c8 01 00 00 	mov    QWORD PTR [rbx+0x1c8],rax
2000010e4:	48 85 c0             	test   rax,rax
2000010e7:	0f 84 79 08 00 00    	je     200001966 <_ZN4Core10ResolveApiEv+0xc99>
2000010ed:	48 8b 4b 28          	mov    rcx,QWORD PTR [rbx+0x28]
2000010f1:	ba 30 af ec 65       	mov    edx,0x65ecaf30
2000010f6:	e8 b4 0c 00 00       	call   200001daf <_ZN6Memory19LdrGetSymbolAddressEP11HINSTANCE__m>
2000010fb:	48 89 83 d0 01 00 00 	mov    QWORD PTR [rbx+0x1d0],rax
200001102:	48 85 c0             	test   rax,rax
200001105:	0f 84 5b 08 00 00    	je     200001966 <_ZN4Core10ResolveApiEv+0xc99>
20000110b:	48 8b 4b 28          	mov    rcx,QWORD PTR [rbx+0x28]
20000110f:	ba e4 d9 61 ea       	mov    edx,0xea61d9e4
200001114:	e8 96 0c 00 00       	call   200001daf <_ZN6Memory19LdrGetSymbolAddressEP11HINSTANCE__m>
200001119:	48 89 83 d8 01 00 00 	mov    QWORD PTR [rbx+0x1d8],rax
200001120:	48 85 c0             	test   rax,rax
200001123:	0f 84 3d 08 00 00    	je     200001966 <_ZN4Core10ResolveApiEv+0xc99>
200001129:	48 8b 4b 28          	mov    rcx,QWORD PTR [rbx+0x28]
20000112d:	ba 2e c5 73 b0       	mov    edx,0xb073c52e
200001132:	e8 78 0c 00 00       	call   200001daf <_ZN6Memory19LdrGetSymbolAddressEP11HINSTANCE__m>
200001137:	48 89 83 e0 01 00 00 	mov    QWORD PTR [rbx+0x1e0],rax
20000113e:	48 85 c0             	test   rax,rax
200001141:	0f 84 1f 08 00 00    	je     200001966 <_ZN4Core10ResolveApiEv+0xc99>
200001147:	48 8b 4b 28          	mov    rcx,QWORD PTR [rbx+0x28]
20000114b:	ba 2f e6 8d 67       	mov    edx,0x678de62f
200001150:	e8 5a 0c 00 00       	call   200001daf <_ZN6Memory19LdrGetSymbolAddressEP11HINSTANCE__m>
200001155:	48 89 83 e8 01 00 00 	mov    QWORD PTR [rbx+0x1e8],rax
20000115c:	48 85 c0             	test   rax,rax
20000115f:	0f 84 01 08 00 00    	je     200001966 <_ZN4Core10ResolveApiEv+0xc99>
200001165:	48 8b 4b 28          	mov    rcx,QWORD PTR [rbx+0x28]
200001169:	ba 86 1b 03 0e       	mov    edx,0xe031b86
20000116e:	e8 3c 0c 00 00       	call   200001daf <_ZN6Memory19LdrGetSymbolAddressEP11HINSTANCE__m>
200001173:	48 89 83 f0 01 00 00 	mov    QWORD PTR [rbx+0x1f0],rax
20000117a:	48 85 c0             	test   rax,rax
20000117d:	0f 84 e3 07 00 00    	je     200001966 <_ZN4Core10ResolveApiEv+0xc99>
200001183:	48 8b 4b 28          	mov    rcx,QWORD PTR [rbx+0x28]
200001187:	ba ef f1 f7 fa       	mov    edx,0xfaf7f1ef
20000118c:	e8 1e 0c 00 00       	call   200001daf <_ZN6Memory19LdrGetSymbolAddressEP11HINSTANCE__m>
200001191:	48 89 83 f8 01 00 00 	mov    QWORD PTR [rbx+0x1f8],rax
200001198:	48 85 c0             	test   rax,rax
20000119b:	0f 84 c5 07 00 00    	je     200001966 <_ZN4Core10ResolveApiEv+0xc99>
2000011a1:	48 8b 4b 28          	mov    rcx,QWORD PTR [rbx+0x28]
2000011a5:	ba 1f 72 3f 7b       	mov    edx,0x7b3f721f
2000011aa:	e8 00 0c 00 00       	call   200001daf <_ZN6Memory19LdrGetSymbolAddressEP11HINSTANCE__m>
2000011af:	48 89 83 90 01 00 00 	mov    QWORD PTR [rbx+0x190],rax
2000011b6:	48 85 c0             	test   rax,rax
2000011b9:	0f 84 a7 07 00 00    	je     200001966 <_ZN4Core10ResolveApiEv+0xc99>
2000011bf:	48 8b 4b 28          	mov    rcx,QWORD PTR [rbx+0x28]
2000011c3:	ba 79 b7 5a a0       	mov    edx,0xa05ab779
2000011c8:	e8 e2 0b 00 00       	call   200001daf <_ZN6Memory19LdrGetSymbolAddressEP11HINSTANCE__m>
2000011cd:	48 89 83 a0 01 00 00 	mov    QWORD PTR [rbx+0x1a0],rax
2000011d4:	48 85 c0             	test   rax,rax
2000011d7:	0f 84 89 07 00 00    	je     200001966 <_ZN4Core10ResolveApiEv+0xc99>
2000011dd:	48 8b 4b 28          	mov    rcx,QWORD PTR [rbx+0x28]
2000011e1:	ba f5 ec 76 7c       	mov    edx,0x7c76ecf5
2000011e6:	e8 c4 0b 00 00       	call   200001daf <_ZN6Memory19LdrGetSymbolAddressEP11HINSTANCE__m>
2000011eb:	48 89 83 a8 01 00 00 	mov    QWORD PTR [rbx+0x1a8],rax
2000011f2:	48 85 c0             	test   rax,rax
2000011f5:	0f 84 6b 07 00 00    	je     200001966 <_ZN4Core10ResolveApiEv+0xc99>
2000011fb:	48 8b 4b 28          	mov    rcx,QWORD PTR [rbx+0x28]
2000011ff:	ba a7 5f a8 3b       	mov    edx,0x3ba85fa7
200001204:	e8 a6 0b 00 00       	call   200001daf <_ZN6Memory19LdrGetSymbolAddressEP11HINSTANCE__m>
200001209:	48 89 83 b0 01 00 00 	mov    QWORD PTR [rbx+0x1b0],rax
200001210:	48 85 c0             	test   rax,rax
200001213:	0f 84 4d 07 00 00    	je     200001966 <_ZN4Core10ResolveApiEv+0xc99>
200001219:	48 8b 4b 28          	mov    rcx,QWORD PTR [rbx+0x28]
20000121d:	ba 0f 50 76 33       	mov    edx,0x3376500f
200001222:	e8 88 0b 00 00       	call   200001daf <_ZN6Memory19LdrGetSymbolAddressEP11HINSTANCE__m>
200001227:	48 89 83 b8 01 00 00 	mov    QWORD PTR [rbx+0x1b8],rax
20000122e:	48 85 c0             	test   rax,rax
200001231:	0f 84 2f 07 00 00    	je     200001966 <_ZN4Core10ResolveApiEv+0xc99>
200001237:	48 8b 4b 28          	mov    rcx,QWORD PTR [rbx+0x28]
20000123b:	ba 0f 83 fc 2d       	mov    edx,0x2dfc830f
200001240:	e8 6a 0b 00 00       	call   200001daf <_ZN6Memory19LdrGetSymbolAddressEP11HINSTANCE__m>
200001245:	48 89 83 68 01 00 00 	mov    QWORD PTR [rbx+0x168],rax
20000124c:	48 85 c0             	test   rax,rax
20000124f:	0f 84 11 07 00 00    	je     200001966 <_ZN4Core10ResolveApiEv+0xc99>
200001255:	48 8b 4b 28          	mov    rcx,QWORD PTR [rbx+0x28]
200001259:	ba c2 48 2e 55       	mov    edx,0x552e48c2
20000125e:	e8 4c 0b 00 00       	call   200001daf <_ZN6Memory19LdrGetSymbolAddressEP11HINSTANCE__m>
200001263:	48 89 83 70 01 00 00 	mov    QWORD PTR [rbx+0x170],rax
20000126a:	48 85 c0             	test   rax,rax
20000126d:	0f 84 f3 06 00 00    	je     200001966 <_ZN4Core10ResolveApiEv+0xc99>
200001273:	48 8b 4b 30          	mov    rcx,QWORD PTR [rbx+0x30]
200001277:	ba 88 a5 75 3f       	mov    edx,0x3f75a588
20000127c:	e8 2e 0b 00 00       	call   200001daf <_ZN6Memory19LdrGetSymbolAddressEP11HINSTANCE__m>
200001281:	48 89 83 18 03 00 00 	mov    QWORD PTR [rbx+0x318],rax
200001288:	48 85 c0             	test   rax,rax
20000128b:	0f 84 d5 06 00 00    	je     200001966 <_ZN4Core10ResolveApiEv+0xc99>
200001291:	48 8b 4b 30          	mov    rcx,QWORD PTR [rbx+0x30]
200001295:	ba b5 76 57 18       	mov    edx,0x185776b5
20000129a:	e8 10 0b 00 00       	call   200001daf <_ZN6Memory19LdrGetSymbolAddressEP11HINSTANCE__m>
20000129f:	48 89 83 58 02 00 00 	mov    QWORD PTR [rbx+0x258],rax
2000012a6:	48 85 c0             	test   rax,rax
2000012a9:	0f 84 b7 06 00 00    	je     200001966 <_ZN4Core10ResolveApiEv+0xc99>
2000012af:	48 8b 4b 30          	mov    rcx,QWORD PTR [rbx+0x30]
2000012b3:	ba 8f 8c 4c 0a       	mov    edx,0xa4c8c8f
2000012b8:	e8 f2 0a 00 00       	call   200001daf <_ZN6Memory19LdrGetSymbolAddressEP11HINSTANCE__m>
2000012bd:	48 89 83 60 02 00 00 	mov    QWORD PTR [rbx+0x260],rax
2000012c4:	48 85 c0             	test   rax,rax
2000012c7:	0f 84 99 06 00 00    	je     200001966 <_ZN4Core10ResolveApiEv+0xc99>
2000012cd:	48 8b 4b 30          	mov    rcx,QWORD PTR [rbx+0x30]
2000012d1:	ba 72 c8 ee 15       	mov    edx,0x15eec872
2000012d6:	e8 d4 0a 00 00       	call   200001daf <_ZN6Memory19LdrGetSymbolAddressEP11HINSTANCE__m>
2000012db:	48 89 83 68 02 00 00 	mov    QWORD PTR [rbx+0x268],rax
2000012e2:	48 85 c0             	test   rax,rax
2000012e5:	0f 84 7b 06 00 00    	je     200001966 <_ZN4Core10ResolveApiEv+0xc99>
2000012eb:	48 8b 4b 30          	mov    rcx,QWORD PTR [rbx+0x30]
2000012ef:	ba 63 c4 98 c3       	mov    edx,0xc398c463
2000012f4:	e8 b6 0a 00 00       	call   200001daf <_ZN6Memory19LdrGetSymbolAddressEP11HINSTANCE__m>
2000012f9:	48 89 83 20 03 00 00 	mov    QWORD PTR [rbx+0x320],rax
200001300:	48 85 c0             	test   rax,rax
200001303:	0f 84 5d 06 00 00    	je     200001966 <_ZN4Core10ResolveApiEv+0xc99>
200001309:	48 8b 4b 30          	mov    rcx,QWORD PTR [rbx+0x30]
20000130d:	ba 1b 49 60 df       	mov    edx,0xdf60491b
200001312:	e8 98 0a 00 00       	call   200001daf <_ZN6Memory19LdrGetSymbolAddressEP11HINSTANCE__m>
200001317:	48 89 83 98 02 00 00 	mov    QWORD PTR [rbx+0x298],rax
20000131e:	48 85 c0             	test   rax,rax
200001321:	0f 84 3f 06 00 00    	je     200001966 <_ZN4Core10ResolveApiEv+0xc99>
200001327:	48 8b 4b 30          	mov    rcx,QWORD PTR [rbx+0x30]
20000132b:	ba 8f 68 68 42       	mov    edx,0x4268688f
200001330:	e8 7a 0a 00 00       	call   200001daf <_ZN6Memory19LdrGetSymbolAddressEP11HINSTANCE__m>
200001335:	48 89 83 08 03 00 00 	mov    QWORD PTR [rbx+0x308],rax
20000133c:	48 85 c0             	test   rax,rax
20000133f:	0f 84 21 06 00 00    	je     200001966 <_ZN4Core10ResolveApiEv+0xc99>
200001345:	48 8b 4b 30          	mov    rcx,QWORD PTR [rbx+0x30]
200001349:	ba bd e9 6b 9c       	mov    edx,0x9c6be9bd
20000134e:	e8 5c 0a 00 00       	call   200001daf <_ZN6Memory19LdrGetSymbolAddressEP11HINSTANCE__m>
200001353:	48 89 83 40 03 00 00 	mov    QWORD PTR [rbx+0x340],rax
20000135a:	48 85 c0             	test   rax,rax
20000135d:	0f 84 03 06 00 00    	je     200001966 <_ZN4Core10ResolveApiEv+0xc99>
200001363:	48 8b 4b 30          	mov    rcx,QWORD PTR [rbx+0x30]
200001367:	ba fe dc c2 3a       	mov    edx,0x3ac2dcfe
20000136c:	e8 3e 0a 00 00       	call   200001daf <_ZN6Memory19LdrGetSymbolAddressEP11HINSTANCE__m>
200001371:	48 89 83 f0 02 00 00 	mov    QWORD PTR [rbx+0x2f0],rax
200001378:	48 85 c0             	test   rax,rax
20000137b:	0f 84 e5 05 00 00    	je     200001966 <_ZN4Core10ResolveApiEv+0xc99>
200001381:	48 8b 4b 30          	mov    rcx,QWORD PTR [rbx+0x30]
200001385:	ba 77 36 2c d7       	mov    edx,0xd72c3677
20000138a:	e8 20 0a 00 00       	call   200001daf <_ZN6Memory19LdrGetSymbolAddressEP11HINSTANCE__m>
20000138f:	48 89 83 f8 02 00 00 	mov    QWORD PTR [rbx+0x2f8],rax
200001396:	48 85 c0             	test   rax,rax
200001399:	0f 84 c7 05 00 00    	je     200001966 <_ZN4Core10ResolveApiEv+0xc99>
20000139f:	48 8b 4b 30          	mov    rcx,QWORD PTR [rbx+0x30]
2000013a3:	ba 74 43 9d ee       	mov    edx,0xee9d4374
2000013a8:	e8 02 0a 00 00       	call   200001daf <_ZN6Memory19LdrGetSymbolAddressEP11HINSTANCE__m>
2000013ad:	48 89 83 10 03 00 00 	mov    QWORD PTR [rbx+0x310],rax
2000013b4:	48 85 c0             	test   rax,rax
2000013b7:	0f 84 a9 05 00 00    	je     200001966 <_ZN4Core10ResolveApiEv+0xc99>
2000013bd:	48 8b 4b 30          	mov    rcx,QWORD PTR [rbx+0x30]
2000013c1:	ba 14 b5 12 c6       	mov    edx,0xc612b514
2000013c6:	e8 e4 09 00 00       	call   200001daf <_ZN6Memory19LdrGetSymbolAddressEP11HINSTANCE__m>
2000013cb:	48 89 83 00 03 00 00 	mov    QWORD PTR [rbx+0x300],rax
2000013d2:	48 85 c0             	test   rax,rax
2000013d5:	0f 84 8b 05 00 00    	je     200001966 <_ZN4Core10ResolveApiEv+0xc99>
2000013db:	48 8b 4b 30          	mov    rcx,QWORD PTR [rbx+0x30]
2000013df:	ba 71 31 e0 04       	mov    edx,0x4e03171
2000013e4:	e8 c6 09 00 00       	call   200001daf <_ZN6Memory19LdrGetSymbolAddressEP11HINSTANCE__m>
2000013e9:	48 89 83 d0 02 00 00 	mov    QWORD PTR [rbx+0x2d0],rax
2000013f0:	48 85 c0             	test   rax,rax
2000013f3:	0f 84 6d 05 00 00    	je     200001966 <_ZN4Core10ResolveApiEv+0xc99>
2000013f9:	48 8b 4b 30          	mov    rcx,QWORD PTR [rbx+0x30]
2000013fd:	ba c4 b3 ca af       	mov    edx,0xafcab3c4
200001402:	e8 a8 09 00 00       	call   200001daf <_ZN6Memory19LdrGetSymbolAddressEP11HINSTANCE__m>
200001407:	48 89 83 c0 02 00 00 	mov    QWORD PTR [rbx+0x2c0],rax
20000140e:	48 85 c0             	test   rax,rax
200001411:	0f 84 4f 05 00 00    	je     200001966 <_ZN4Core10ResolveApiEv+0xc99>
200001417:	48 8b 4b 30          	mov    rcx,QWORD PTR [rbx+0x30]
20000141b:	ba 43 c9 fc 54       	mov    edx,0x54fcc943
200001420:	e8 8a 09 00 00       	call   200001daf <_ZN6Memory19LdrGetSymbolAddressEP11HINSTANCE__m>
200001425:	48 89 83 b0 02 00 00 	mov    QWORD PTR [rbx+0x2b0],rax
20000142c:	48 85 c0             	test   rax,rax
20000142f:	0f 84 31 05 00 00    	je     200001966 <_ZN4Core10ResolveApiEv+0xc99>
200001435:	48 8b 4b 30          	mov    rcx,QWORD PTR [rbx+0x30]
200001439:	ba 4a c4 07 7f       	mov    edx,0x7f07c44a
20000143e:	e8 6c 09 00 00       	call   200001daf <_ZN6Memory19LdrGetSymbolAddressEP11HINSTANCE__m>
200001443:	48 89 83 b8 02 00 00 	mov    QWORD PTR [rbx+0x2b8],rax
20000144a:	48 85 c0             	test   rax,rax
20000144d:	0f 84 13 05 00 00    	je     200001966 <_ZN4Core10ResolveApiEv+0xc99>
200001453:	48 8b 4b 30          	mov    rcx,QWORD PTR [rbx+0x30]
200001457:	ba cd ef c9 fd       	mov    edx,0xfdc9efcd
20000145c:	e8 4e 09 00 00       	call   200001daf <_ZN6Memory19LdrGetSymbolAddressEP11HINSTANCE__m>
200001461:	48 89 83 c8 02 00 00 	mov    QWORD PTR [rbx+0x2c8],rax
200001468:	48 85 c0             	test   rax,rax
20000146b:	0f 84 f5 04 00 00    	je     200001966 <_ZN4Core10ResolveApiEv+0xc99>
200001471:	48 8b 4b 30          	mov    rcx,QWORD PTR [rbx+0x30]
200001475:	ba 55 2f 48 d7       	mov    edx,0xd7482f55
20000147a:	e8 30 09 00 00       	call   200001daf <_ZN6Memory19LdrGetSymbolAddressEP11HINSTANCE__m>
20000147f:	48 89 83 d8 02 00 00 	mov    QWORD PTR [rbx+0x2d8],rax
200001486:	48 85 c0             	test   rax,rax
200001489:	0f 84 d7 04 00 00    	je     200001966 <_ZN4Core10ResolveApiEv+0xc99>
20000148f:	48 8b 4b 30          	mov    rcx,QWORD PTR [rbx+0x30]
200001493:	ba 98 13 4d 6f       	mov    edx,0x6f4d1398
200001498:	e8 12 09 00 00       	call   200001daf <_ZN6Memory19LdrGetSymbolAddressEP11HINSTANCE__m>
20000149d:	48 89 83 e8 02 00 00 	mov    QWORD PTR [rbx+0x2e8],rax
2000014a4:	48 85 c0             	test   rax,rax
2000014a7:	0f 84 b9 04 00 00    	je     200001966 <_ZN4Core10ResolveApiEv+0xc99>
2000014ad:	48 8b 4b 30          	mov    rcx,QWORD PTR [rbx+0x30]
2000014b1:	ba e6 c6 35 dd       	mov    edx,0xdd35c6e6
2000014b6:	e8 f4 08 00 00       	call   200001daf <_ZN6Memory19LdrGetSymbolAddressEP11HINSTANCE__m>
2000014bb:	48 89 83 e0 02 00 00 	mov    QWORD PTR [rbx+0x2e0],rax
2000014c2:	48 85 c0             	test   rax,rax
2000014c5:	0f 84 9b 04 00 00    	je     200001966 <_ZN4Core10ResolveApiEv+0xc99>
2000014cb:	48 8b 4b 30          	mov    rcx,QWORD PTR [rbx+0x30]
2000014cf:	ba f7 ad 15 94       	mov    edx,0x9415adf7
2000014d4:	e8 d6 08 00 00       	call   200001daf <_ZN6Memory19LdrGetSymbolAddressEP11HINSTANCE__m>
2000014d9:	48 89 83 f8 03 00 00 	mov    QWORD PTR [rbx+0x3f8],rax
2000014e0:	48 85 c0             	test   rax,rax
2000014e3:	0f 84 7d 04 00 00    	je     200001966 <_ZN4Core10ResolveApiEv+0xc99>
2000014e9:	48 8b 4b 30          	mov    rcx,QWORD PTR [rbx+0x30]
2000014ed:	ba b3 18 05 fe       	mov    edx,0xfe0518b3
2000014f2:	e8 b8 08 00 00       	call   200001daf <_ZN6Memory19LdrGetSymbolAddressEP11HINSTANCE__m>
2000014f7:	48 89 83 f0 03 00 00 	mov    QWORD PTR [rbx+0x3f0],rax
2000014fe:	48 85 c0             	test   rax,rax
200001501:	0f 84 5f 04 00 00    	je     200001966 <_ZN4Core10ResolveApiEv+0xc99>
200001507:	48 8b 4b 30          	mov    rcx,QWORD PTR [rbx+0x30]
20000150b:	ba 0a 20 36 f3       	mov    edx,0xf336200a
200001510:	e8 9a 08 00 00       	call   200001daf <_ZN6Memory19LdrGetSymbolAddressEP11HINSTANCE__m>
200001515:	48 89 83 00 04 00 00 	mov    QWORD PTR [rbx+0x400],rax
20000151c:	48 85 c0             	test   rax,rax
20000151f:	0f 84 41 04 00 00    	je     200001966 <_ZN4Core10ResolveApiEv+0xc99>
200001525:	48 8b 4b 30          	mov    rcx,QWORD PTR [rbx+0x30]
200001529:	ba e6 d3 d5 58       	mov    edx,0x58d5d3e6
20000152e:	e8 7c 08 00 00       	call   200001daf <_ZN6Memory19LdrGetSymbolAddressEP11HINSTANCE__m>
200001533:	48 89 83 10 04 00 00 	mov    QWORD PTR [rbx+0x410],rax
20000153a:	48 85 c0             	test   rax,rax
20000153d:	0f 84 23 04 00 00    	je     200001966 <_ZN4Core10ResolveApiEv+0xc99>
200001543:	48 8b 4b 30          	mov    rcx,QWORD PTR [rbx+0x30]
200001547:	ba 20 1d 85 8a       	mov    edx,0x8a851d20
20000154c:	e8 5e 08 00 00       	call   200001daf <_ZN6Memory19LdrGetSymbolAddressEP11HINSTANCE__m>
200001551:	48 89 83 20 04 00 00 	mov    QWORD PTR [rbx+0x420],rax
200001558:	48 85 c0             	test   rax,rax
20000155b:	0f 84 05 04 00 00    	je     200001966 <_ZN4Core10ResolveApiEv+0xc99>
200001561:	48 8b 4b 30          	mov    rcx,QWORD PTR [rbx+0x30]
200001565:	ba 93 b8 b0 84       	mov    edx,0x84b0b893
20000156a:	e8 40 08 00 00       	call   200001daf <_ZN6Memory19LdrGetSymbolAddressEP11HINSTANCE__m>
20000156f:	48 89 83 08 04 00 00 	mov    QWORD PTR [rbx+0x408],rax
200001576:	48 85 c0             	test   rax,rax
200001579:	0f 84 e7 03 00 00    	je     200001966 <_ZN4Core10ResolveApiEv+0xc99>
20000157f:	48 8b 4b 30          	mov    rcx,QWORD PTR [rbx+0x30]
200001583:	ba 17 f7 3f 31       	mov    edx,0x313ff717
200001588:	e8 22 08 00 00       	call   200001daf <_ZN6Memory19LdrGetSymbolAddressEP11HINSTANCE__m>
20000158d:	48 89 83 28 04 00 00 	mov    QWORD PTR [rbx+0x428],rax
200001594:	48 85 c0             	test   rax,rax
200001597:	0f 84 c9 03 00 00    	je     200001966 <_ZN4Core10ResolveApiEv+0xc99>
20000159d:	48 8b 4b 30          	mov    rcx,QWORD PTR [rbx+0x30]
2000015a1:	ba 0f 07 b2 53       	mov    edx,0x53b2070f
2000015a6:	e8 04 08 00 00       	call   200001daf <_ZN6Memory19LdrGetSymbolAddressEP11HINSTANCE__m>
2000015ab:	48 89 83 20 02 00 00 	mov    QWORD PTR [rbx+0x220],rax
2000015b2:	48 89 c6             	mov    rsi,rax
2000015b5:	48 85 c0             	test   rax,rax
2000015b8:	0f 84 a8 03 00 00    	je     200001966 <_ZN4Core10ResolveApiEv+0xc99>
2000015be:	48 8d 7c 24 20       	lea    rdi,[rsp+0x20]
2000015c3:	31 d2                	xor    edx,edx
2000015c5:	48 89 f9             	mov    rcx,rdi
2000015c8:	e8 6d 22 00 00       	call   20000383a <_ZN6Parser12UnpackStringEP6PARSERPm>
2000015cd:	48 89 c1             	mov    rcx,rax
2000015d0:	ff d6                	call   rsi
2000015d2:	48 89 43 38          	mov    QWORD PTR [rbx+0x38],rax
2000015d6:	48 85 c0             	test   rax,rax
2000015d9:	74 7c                	je     200001657 <_ZN4Core10ResolveApiEv+0x98a>
2000015db:	31 d2                	xor    edx,edx
2000015dd:	48 89 f9             	mov    rcx,rdi
2000015e0:	48 8b b3 20 02 00 00 	mov    rsi,QWORD PTR [rbx+0x220]
2000015e7:	e8 4e 22 00 00       	call   20000383a <_ZN6Parser12UnpackStringEP6PARSERPm>
2000015ec:	48 89 c1             	mov    rcx,rax
2000015ef:	ff d6                	call   rsi
2000015f1:	48 89 43 40          	mov    QWORD PTR [rbx+0x40],rax
2000015f5:	48 85 c0             	test   rax,rax
2000015f8:	74 5d                	je     200001657 <_ZN4Core10ResolveApiEv+0x98a>
2000015fa:	31 d2                	xor    edx,edx
2000015fc:	48 89 f9             	mov    rcx,rdi
2000015ff:	48 8b b3 20 02 00 00 	mov    rsi,QWORD PTR [rbx+0x220]
200001606:	e8 2f 22 00 00       	call   20000383a <_ZN6Parser12UnpackStringEP6PARSERPm>
20000160b:	48 89 c1             	mov    rcx,rax
20000160e:	ff d6                	call   rsi
200001610:	48 89 43 48          	mov    QWORD PTR [rbx+0x48],rax
200001614:	48 85 c0             	test   rax,rax
200001617:	74 3e                	je     200001657 <_ZN4Core10ResolveApiEv+0x98a>
200001619:	31 d2                	xor    edx,edx
20000161b:	48 89 f9             	mov    rcx,rdi
20000161e:	48 8b b3 20 02 00 00 	mov    rsi,QWORD PTR [rbx+0x220]
200001625:	e8 10 22 00 00       	call   20000383a <_ZN6Parser12UnpackStringEP6PARSERPm>
20000162a:	48 89 c1             	mov    rcx,rax
20000162d:	ff d6                	call   rsi
20000162f:	48 89 43 50          	mov    QWORD PTR [rbx+0x50],rax
200001633:	48 85 c0             	test   rax,rax
200001636:	74 1f                	je     200001657 <_ZN4Core10ResolveApiEv+0x98a>
200001638:	48 8b 4b 40          	mov    rcx,QWORD PTR [rbx+0x40]
20000163c:	ba a5 83 bc ae       	mov    edx,0xaebc83a5
200001641:	e8 69 07 00 00       	call   200001daf <_ZN6Memory19LdrGetSymbolAddressEP11HINSTANCE__m>
200001646:	48 89 83 48 03 00 00 	mov    QWORD PTR [rbx+0x348],rax
20000164d:	48 85 c0             	test   rax,rax
200001650:	75 15                	jne    200001667 <_ZN4Core10ResolveApiEv+0x99a>
200001652:	e9 0f 03 00 00       	jmp    200001966 <_ZN4Core10ResolveApiEv+0xc99>
200001657:	48 8b 43 08          	mov    rax,QWORD PTR [rbx+0x8]
20000165b:	c7 40 68 7e 00 00 00 	mov    DWORD PTR [rax+0x68],0x7e
200001662:	e9 0a 03 00 00       	jmp    200001971 <_ZN4Core10ResolveApiEv+0xca4>
200001667:	48 8b 4b 40          	mov    rcx,QWORD PTR [rbx+0x40]
20000166b:	ba 4d 1a b5 b0       	mov    edx,0xb0b51a4d
200001670:	e8 3a 07 00 00       	call   200001daf <_ZN6Memory19LdrGetSymbolAddressEP11HINSTANCE__m>
200001675:	48 89 83 50 03 00 00 	mov    QWORD PTR [rbx+0x350],rax
20000167c:	48 85 c0             	test   rax,rax
20000167f:	0f 84 e1 02 00 00    	je     200001966 <_ZN4Core10ResolveApiEv+0xc99>
200001685:	48 8b 4b 40          	mov    rcx,QWORD PTR [rbx+0x40]
200001689:	ba 72 df 52 15       	mov    edx,0x1552df72
20000168e:	e8 1c 07 00 00       	call   200001daf <_ZN6Memory19LdrGetSymbolAddressEP11HINSTANCE__m>
200001693:	48 89 83 58 03 00 00 	mov    QWORD PTR [rbx+0x358],rax
20000169a:	48 85 c0             	test   rax,rax
20000169d:	0f 84 c3 02 00 00    	je     200001966 <_ZN4Core10ResolveApiEv+0xc99>
2000016a3:	48 8b 4b 40          	mov    rcx,QWORD PTR [rbx+0x40]
2000016a7:	ba d5 80 2e 6f       	mov    edx,0x6f2e80d5
2000016ac:	e8 fe 06 00 00       	call   200001daf <_ZN6Memory19LdrGetSymbolAddressEP11HINSTANCE__m>
2000016b1:	48 89 83 60 03 00 00 	mov    QWORD PTR [rbx+0x360],rax
2000016b8:	48 85 c0             	test   rax,rax
2000016bb:	0f 84 a5 02 00 00    	je     200001966 <_ZN4Core10ResolveApiEv+0xc99>
2000016c1:	48 8b 4b 40          	mov    rcx,QWORD PTR [rbx+0x40]
2000016c5:	ba fa 42 4f a6       	mov    edx,0xa64f42fa
2000016ca:	e8 e0 06 00 00       	call   200001daf <_ZN6Memory19LdrGetSymbolAddressEP11HINSTANCE__m>
2000016cf:	48 89 83 68 03 00 00 	mov    QWORD PTR [rbx+0x368],rax
2000016d6:	48 85 c0             	test   rax,rax
2000016d9:	0f 84 87 02 00 00    	je     200001966 <_ZN4Core10ResolveApiEv+0xc99>
2000016df:	48 8b 4b 40          	mov    rcx,QWORD PTR [rbx+0x40]
2000016e3:	ba 91 bb 71 bf       	mov    edx,0xbf71bb91
2000016e8:	e8 c2 06 00 00       	call   200001daf <_ZN6Memory19LdrGetSymbolAddressEP11HINSTANCE__m>
2000016ed:	48 89 83 70 03 00 00 	mov    QWORD PTR [rbx+0x370],rax
2000016f4:	48 85 c0             	test   rax,rax
2000016f7:	0f 84 69 02 00 00    	je     200001966 <_ZN4Core10ResolveApiEv+0xc99>
2000016fd:	48 8b 4b 40          	mov    rcx,QWORD PTR [rbx+0x40]
200001701:	ba ca b6 a5 af       	mov    edx,0xafa5b6ca
200001706:	e8 a4 06 00 00       	call   200001daf <_ZN6Memory19LdrGetSymbolAddressEP11HINSTANCE__m>
20000170b:	48 89 83 78 03 00 00 	mov    QWORD PTR [rbx+0x378],rax
200001712:	48 85 c0             	test   rax,rax
200001715:	0f 84 4b 02 00 00    	je     200001966 <_ZN4Core10ResolveApiEv+0xc99>
20000171b:	48 8b 4b 40          	mov    rcx,QWORD PTR [rbx+0x40]
20000171f:	ba 64 b5 cf e0       	mov    edx,0xe0cfb564
200001724:	e8 86 06 00 00       	call   200001daf <_ZN6Memory19LdrGetSymbolAddressEP11HINSTANCE__m>
200001729:	48 89 83 80 03 00 00 	mov    QWORD PTR [rbx+0x380],rax
200001730:	48 85 c0             	test   rax,rax
200001733:	0f 84 2d 02 00 00    	je     200001966 <_ZN4Core10ResolveApiEv+0xc99>
200001739:	48 8b 4b 40          	mov    rcx,QWORD PTR [rbx+0x40]
20000173d:	ba 21 80 3c ec       	mov    edx,0xec3c8021
200001742:	e8 68 06 00 00       	call   200001daf <_ZN6Memory19LdrGetSymbolAddressEP11HINSTANCE__m>
200001747:	48 89 83 88 03 00 00 	mov    QWORD PTR [rbx+0x388],rax
20000174e:	48 85 c0             	test   rax,rax
200001751:	0f 84 0f 02 00 00    	je     200001966 <_ZN4Core10ResolveApiEv+0xc99>
200001757:	48 8b 4b 40          	mov    rcx,QWORD PTR [rbx+0x40]
20000175b:	ba 29 51 3a 94       	mov    edx,0x943a5129
200001760:	e8 4a 06 00 00       	call   200001daf <_ZN6Memory19LdrGetSymbolAddressEP11HINSTANCE__m>
200001765:	48 89 83 90 03 00 00 	mov    QWORD PTR [rbx+0x390],rax
20000176c:	48 85 c0             	test   rax,rax
20000176f:	0f 84 f1 01 00 00    	je     200001966 <_ZN4Core10ResolveApiEv+0xc99>
200001775:	48 8b 4b 40          	mov    rcx,QWORD PTR [rbx+0x40]
200001779:	ba 8f a2 7a 43       	mov    edx,0x437aa28f
20000177e:	e8 2c 06 00 00       	call   200001daf <_ZN6Memory19LdrGetSymbolAddressEP11HINSTANCE__m>
200001783:	48 89 83 98 03 00 00 	mov    QWORD PTR [rbx+0x398],rax
20000178a:	48 85 c0             	test   rax,rax
20000178d:	0f 84 d3 01 00 00    	je     200001966 <_ZN4Core10ResolveApiEv+0xc99>
200001793:	48 8b 4b 40          	mov    rcx,QWORD PTR [rbx+0x40]
200001797:	ba e6 8a 08 26       	mov    edx,0x26088ae6
20000179c:	e8 0e 06 00 00       	call   200001daf <_ZN6Memory19LdrGetSymbolAddressEP11HINSTANCE__m>
2000017a1:	48 89 83 a0 03 00 00 	mov    QWORD PTR [rbx+0x3a0],rax
2000017a8:	48 85 c0             	test   rax,rax
2000017ab:	0f 84 b5 01 00 00    	je     200001966 <_ZN4Core10ResolveApiEv+0xc99>
2000017b1:	48 8b 4b 40          	mov    rcx,QWORD PTR [rbx+0x40]
2000017b5:	ba 99 3a 05 d2       	mov    edx,0xd2053a99
2000017ba:	e8 f0 05 00 00       	call   200001daf <_ZN6Memory19LdrGetSymbolAddressEP11HINSTANCE__m>
2000017bf:	48 89 83 a8 03 00 00 	mov    QWORD PTR [rbx+0x3a8],rax
2000017c6:	48 85 c0             	test   rax,rax
2000017c9:	0f 84 97 01 00 00    	je     200001966 <_ZN4Core10ResolveApiEv+0xc99>
2000017cf:	48 8b 4b 50          	mov    rcx,QWORD PTR [rbx+0x50]
2000017d3:	ba a3 ab 0d 04       	mov    edx,0x40daba3
2000017d8:	e8 d2 05 00 00       	call   200001daf <_ZN6Memory19LdrGetSymbolAddressEP11HINSTANCE__m>
2000017dd:	48 89 83 b0 03 00 00 	mov    QWORD PTR [rbx+0x3b0],rax
2000017e4:	48 85 c0             	test   rax,rax
2000017e7:	0f 84 79 01 00 00    	je     200001966 <_ZN4Core10ResolveApiEv+0xc99>
2000017ed:	48 8b 4b 38          	mov    rcx,QWORD PTR [rbx+0x38]
2000017f1:	ba 39 a7 40 6c       	mov    edx,0x6c40a739
2000017f6:	e8 b4 05 00 00       	call   200001daf <_ZN6Memory19LdrGetSymbolAddressEP11HINSTANCE__m>
2000017fb:	48 89 83 b8 03 00 00 	mov    QWORD PTR [rbx+0x3b8],rax
200001802:	48 85 c0             	test   rax,rax
200001805:	0f 84 5b 01 00 00    	je     200001966 <_ZN4Core10ResolveApiEv+0xc99>
20000180b:	48 8b 4b 38          	mov    rcx,QWORD PTR [rbx+0x38]
20000180f:	ba 89 24 ef 76       	mov    edx,0x76ef2489
200001814:	e8 96 05 00 00       	call   200001daf <_ZN6Memory19LdrGetSymbolAddressEP11HINSTANCE__m>
200001819:	48 89 83 c0 03 00 00 	mov    QWORD PTR [rbx+0x3c0],rax
200001820:	48 85 c0             	test   rax,rax
200001823:	0f 84 3d 01 00 00    	je     200001966 <_ZN4Core10ResolveApiEv+0xc99>
200001829:	48 8b 4b 48          	mov    rcx,QWORD PTR [rbx+0x48]
20000182d:	ba 1a c6 a7 38       	mov    edx,0x38a7c61a
200001832:	e8 78 05 00 00       	call   200001daf <_ZN6Memory19LdrGetSymbolAddressEP11HINSTANCE__m>
200001837:	48 89 83 30 04 00 00 	mov    QWORD PTR [rbx+0x430],rax
20000183e:	48 85 c0             	test   rax,rax
200001841:	0f 84 1f 01 00 00    	je     200001966 <_ZN4Core10ResolveApiEv+0xc99>
200001847:	48 8b 4b 48          	mov    rcx,QWORD PTR [rbx+0x48]
20000184b:	ba b7 ef 07 43       	mov    edx,0x4307efb7
200001850:	e8 5a 05 00 00       	call   200001daf <_ZN6Memory19LdrGetSymbolAddressEP11HINSTANCE__m>
200001855:	48 89 83 38 04 00 00 	mov    QWORD PTR [rbx+0x438],rax
20000185c:	48 85 c0             	test   rax,rax
20000185f:	0f 84 01 01 00 00    	je     200001966 <_ZN4Core10ResolveApiEv+0xc99>
200001865:	48 8b 4b 48          	mov    rcx,QWORD PTR [rbx+0x48]
200001869:	ba 5e be ab f0       	mov    edx,0xf0abbe5e
20000186e:	e8 3c 05 00 00       	call   200001daf <_ZN6Memory19LdrGetSymbolAddressEP11HINSTANCE__m>
200001873:	48 89 83 40 04 00 00 	mov    QWORD PTR [rbx+0x440],rax
20000187a:	48 85 c0             	test   rax,rax
20000187d:	0f 84 e3 00 00 00    	je     200001966 <_ZN4Core10ResolveApiEv+0xc99>
200001883:	48 8b 4b 48          	mov    rcx,QWORD PTR [rbx+0x48]
200001887:	ba b5 fa 83 68       	mov    edx,0x6883fab5
20000188c:	e8 1e 05 00 00       	call   200001daf <_ZN6Memory19LdrGetSymbolAddressEP11HINSTANCE__m>
200001891:	48 89 83 48 04 00 00 	mov    QWORD PTR [rbx+0x448],rax
200001898:	48 85 c0             	test   rax,rax
20000189b:	0f 84 c5 00 00 00    	je     200001966 <_ZN4Core10ResolveApiEv+0xc99>
2000018a1:	48 8b 4b 48          	mov    rcx,QWORD PTR [rbx+0x48]
2000018a5:	ba 33 62 44 95       	mov    edx,0x95446233
2000018aa:	e8 00 05 00 00       	call   200001daf <_ZN6Memory19LdrGetSymbolAddressEP11HINSTANCE__m>
2000018af:	48 89 83 50 04 00 00 	mov    QWORD PTR [rbx+0x450],rax
2000018b6:	48 85 c0             	test   rax,rax
2000018b9:	0f 84 a7 00 00 00    	je     200001966 <_ZN4Core10ResolveApiEv+0xc99>
2000018bf:	48 8b 4b 48          	mov    rcx,QWORD PTR [rbx+0x48]
2000018c3:	ba e6 44 7b b5       	mov    edx,0xb57b44e6
2000018c8:	e8 e2 04 00 00       	call   200001daf <_ZN6Memory19LdrGetSymbolAddressEP11HINSTANCE__m>
2000018cd:	48 89 83 58 04 00 00 	mov    QWORD PTR [rbx+0x458],rax
2000018d4:	48 85 c0             	test   rax,rax
2000018d7:	0f 84 89 00 00 00    	je     200001966 <_ZN4Core10ResolveApiEv+0xc99>
2000018dd:	48 8b 4b 48          	mov    rcx,QWORD PTR [rbx+0x48]
2000018e1:	ba 68 c2 3f c2       	mov    edx,0xc23fc268
2000018e6:	e8 c4 04 00 00       	call   200001daf <_ZN6Memory19LdrGetSymbolAddressEP11HINSTANCE__m>
2000018eb:	48 89 83 60 04 00 00 	mov    QWORD PTR [rbx+0x460],rax
2000018f2:	48 85 c0             	test   rax,rax
2000018f5:	74 6f                	je     200001966 <_ZN4Core10ResolveApiEv+0xc99>
2000018f7:	48 8b 4b 48          	mov    rcx,QWORD PTR [rbx+0x48]
2000018fb:	ba 31 8c bf 1d       	mov    edx,0x1dbf8c31
200001900:	e8 aa 04 00 00       	call   200001daf <_ZN6Memory19LdrGetSymbolAddressEP11HINSTANCE__m>
200001905:	48 89 83 78 04 00 00 	mov    QWORD PTR [rbx+0x478],rax
20000190c:	48 85 c0             	test   rax,rax
20000190f:	74 55                	je     200001966 <_ZN4Core10ResolveApiEv+0xc99>
200001911:	48 8b 4b 48          	mov    rcx,QWORD PTR [rbx+0x48]
200001915:	ba 70 85 ac 38       	mov    edx,0x38ac8570
20000191a:	e8 90 04 00 00       	call   200001daf <_ZN6Memory19LdrGetSymbolAddressEP11HINSTANCE__m>
20000191f:	48 89 83 68 04 00 00 	mov    QWORD PTR [rbx+0x468],rax
200001926:	48 85 c0             	test   rax,rax
200001929:	74 3b                	je     200001966 <_ZN4Core10ResolveApiEv+0xc99>
20000192b:	48 8b 4b 48          	mov    rcx,QWORD PTR [rbx+0x48]
20000192f:	ba 97 32 9c ee       	mov    edx,0xee9c3297
200001934:	e8 76 04 00 00       	call   200001daf <_ZN6Memory19LdrGetSymbolAddressEP11HINSTANCE__m>
200001939:	48 89 83 70 04 00 00 	mov    QWORD PTR [rbx+0x470],rax
200001940:	48 85 c0             	test   rax,rax
200001943:	74 21                	je     200001966 <_ZN4Core10ResolveApiEv+0xc99>
200001945:	48 8b 4b 48          	mov    rcx,QWORD PTR [rbx+0x48]
200001949:	ba e5 0e 2c 2d       	mov    edx,0x2d2c0ee5
20000194e:	e8 5c 04 00 00       	call   200001daf <_ZN6Memory19LdrGetSymbolAddressEP11HINSTANCE__m>
200001953:	48 89 83 80 04 00 00 	mov    QWORD PTR [rbx+0x480],rax
20000195a:	48 85 c0             	test   rax,rax
20000195d:	74 07                	je     200001966 <_ZN4Core10ResolveApiEv+0xc99>
20000195f:	e8 3c f1 ff ff       	call   200000aa0 <_ZN4Core10ReadConfigEv>
200001964:	eb 0b                	jmp    200001971 <_ZN4Core10ResolveApiEv+0xca4>
200001966:	48 8b 43 08          	mov    rax,QWORD PTR [rbx+0x8]
20000196a:	c7 40 68 7f 00 00 00 	mov    DWORD PTR [rax+0x68],0x7f
200001971:	48 81 c4 50 01 00 00 	add    rsp,0x150
200001978:	5b                   	pop    rbx
200001979:	5e                   	pop    rsi
20000197a:	5f                   	pop    rdi
20000197b:	c3                   	ret

000000020000197c <_ZN4Core11MainRoutineEv>:
20000197c:	56                   	push   rsi
20000197d:	53                   	push   rbx
20000197e:	48 83 ec 28          	sub    rsp,0x28
200001982:	e8 8f e6 ff ff       	call   200000016 <InstStart>
200001987:	48 8b 15 c2 23 00 00 	mov    rdx,QWORD PTR [rip+0x23c2]        # 200003d50 <.refptr.__InstanceOffset>
20000198e:	48 8b 1c 10          	mov    rbx,QWORD PTR [rax+rdx*1]
200001992:	e8 36 f3 ff ff       	call   200000ccd <_ZN4Core10ResolveApiEv>
200001997:	48 8b 43 08          	mov    rax,QWORD PTR [rbx+0x8]
20000199b:	83 78 68 00          	cmp    DWORD PTR [rax+0x68],0x0
20000199f:	75 56                	jne    2000019f7 <_ZN4Core11MainRoutineEv+0x7b>
2000019a1:	e8 42 17 00 00       	call   2000030e8 <_Z18SeCheckEnvironmentv>
2000019a6:	48 8b 43 08          	mov    rax,QWORD PTR [rbx+0x8]
2000019aa:	83 78 68 0a          	cmp    DWORD PTR [rax+0x68],0xa
2000019ae:	74 47                	je     2000019f7 <_ZN4Core11MainRoutineEv+0x7b>
2000019b0:	e8 88 1a 00 00       	call   20000343d <_Z8SleepObfv>
2000019b5:	e8 06 16 00 00       	call   200002fc0 <_Z9CheckTimev>
2000019ba:	85 c0                	test   eax,eax
2000019bc:	75 0d                	jne    2000019cb <_ZN4Core11MainRoutineEv+0x4f>
2000019be:	48 8b 43 08          	mov    rax,QWORD PTR [rbx+0x8]
2000019c2:	c7 40 68 15 00 00 00 	mov    DWORD PTR [rax+0x68],0x15
2000019c9:	eb 2c                	jmp    2000019f7 <_ZN4Core11MainRoutineEv+0x7b>
2000019cb:	e8 c7 07 00 00       	call   200002197 <_ZN7Message15MessageTransmitEv>
2000019d0:	48 8b 43 08          	mov    rax,QWORD PTR [rbx+0x8]
2000019d4:	83 78 68 00          	cmp    DWORD PTR [rax+0x68],0x0
2000019d8:	74 13                	je     2000019ed <_ZN4Core11MainRoutineEv+0x71>
2000019da:	8b 83 a8 00 00 00    	mov    eax,DWORD PTR [rbx+0xa8]
2000019e0:	ff c0                	inc    eax
2000019e2:	89 83 a8 00 00 00    	mov    DWORD PTR [rbx+0xa8],eax
2000019e8:	83 f8 03             	cmp    eax,0x3
2000019eb:	eb c1                	jmp    2000019ae <_ZN4Core11MainRoutineEv+0x32>
2000019ed:	31 c0                	xor    eax,eax
2000019ef:	89 83 a8 00 00 00    	mov    DWORD PTR [rbx+0xa8],eax
2000019f5:	eb b9                	jmp    2000019b0 <_ZN4Core11MainRoutineEv+0x34>
2000019f7:	48 89 d9             	mov    rcx,rbx
2000019fa:	41 b8 88 04 00 00    	mov    r8d,0x488
200001a00:	31 d2                	xor    edx,edx
200001a02:	48 8b b3 a8 01 00 00 	mov    rsi,QWORD PTR [rbx+0x1a8]
200001a09:	e8 37 00 00 00       	call   200001a45 <_Z8x_memsetPviy>
200001a0e:	49 89 d8             	mov    r8,rbx
200001a11:	31 d2                	xor    edx,edx
200001a13:	65 48 8b 04 25 30 00 	mov    rax,QWORD PTR gs:0x30
200001a1a:	00 00
200001a1c:	48 8b 40 60          	mov    rax,QWORD PTR [rax+0x60]
200001a20:	48 8b 48 30          	mov    rcx,QWORD PTR [rax+0x30]
200001a24:	48 83 c4 28          	add    rsp,0x28
200001a28:	48 89 f0             	mov    rax,rsi
200001a2b:	5b                   	pop    rbx
200001a2c:	5e                   	pop    rsi
200001a2d:	ff e0                	jmp    rax
200001a2f:	90                   	nop

0000000200001a30 <_Z8x_memcpyPvPKvy>:
200001a30:	31 c0                	xor    eax,eax
200001a32:	4c 39 c0             	cmp    rax,r8
200001a35:	74 0d                	je     200001a44 <_Z8x_memcpyPvPKvy+0x14>
200001a37:	44 8a 0c 02          	mov    r9b,BYTE PTR [rdx+rax*1]
200001a3b:	44 88 0c 01          	mov    BYTE PTR [rcx+rax*1],r9b
200001a3f:	48 ff c0             	inc    rax
200001a42:	eb ee                	jmp    200001a32 <_Z8x_memcpyPvPKvy+0x2>
200001a44:	c3                   	ret

0000000200001a45 <_Z8x_memsetPviy>:
200001a45:	48 89 c8             	mov    rax,rcx
200001a48:	31 c9                	xor    ecx,ecx
200001a4a:	49 39 c8             	cmp    r8,rcx
200001a4d:	74 08                	je     200001a57 <_Z8x_memsetPviy+0x12>
200001a4f:	88 14 08             	mov    BYTE PTR [rax+rcx*1],dl
200001a52:	48 ff c1             	inc    rcx
200001a55:	eb f3                	jmp    200001a4a <_Z8x_memsetPviy+0x5>
200001a57:	c3                   	ret

0000000200001a58 <_Z8x_strcpyPcPKc>:
200001a58:	31 c0                	xor    eax,eax
200001a5a:	44 8a 04 02          	mov    r8b,BYTE PTR [rdx+rax*1]
200001a5e:	44 88 04 01          	mov    BYTE PTR [rcx+rax*1],r8b
200001a62:	48 ff c0             	inc    rax
200001a65:	45 84 c0             	test   r8b,r8b
200001a68:	75 f0                	jne    200001a5a <_Z8x_strcpyPcPKc+0x2>
200001a6a:	c3                   	ret

0000000200001a6b <_Z9x_strncmpPcS_y>:
200001a6b:	4d 85 c0             	test   r8,r8
200001a6e:	74 1c                	je     200001a8c <_Z9x_strncmpPcS_y+0x21>
200001a70:	8a 01                	mov    al,BYTE PTR [rcx]
200001a72:	84 c0                	test   al,al
200001a74:	74 16                	je     200001a8c <_Z9x_strncmpPcS_y+0x21>
200001a76:	3a 02                	cmp    al,BYTE PTR [rdx]
200001a78:	75 12                	jne    200001a8c <_Z9x_strncmpPcS_y+0x21>
200001a7a:	31 c0                	xor    eax,eax
200001a7c:	49 ff c8             	dec    r8
200001a7f:	74 0e                	je     200001a8f <_Z9x_strncmpPcS_y+0x24>
200001a81:	0f be 41 01          	movsx  eax,BYTE PTR [rcx+0x1]
200001a85:	0f be 52 01          	movsx  edx,BYTE PTR [rdx+0x1]
200001a89:	29 d0                	sub    eax,edx
200001a8b:	c3                   	ret
200001a8c:	44 89 c0             	mov    eax,r8d
200001a8f:	c3                   	ret

0000000200001a90 <_Z8x_strcmpPcS_>:
200001a90:	31 c0                	xor    eax,eax
200001a92:	44 8a 04 01          	mov    r8b,BYTE PTR [rcx+rax*1]
200001a96:	44 3a 04 02          	cmp    r8b,BYTE PTR [rdx+rax*1]
200001a9a:	75 0b                	jne    200001aa7 <_Z8x_strcmpPcS_+0x17>
200001a9c:	48 ff c0             	inc    rax
200001a9f:	45 84 c0             	test   r8b,r8b
200001aa2:	75 ee                	jne    200001a92 <_Z8x_strcmpPcS_+0x2>
200001aa4:	31 c0                	xor    eax,eax
200001aa6:	c3                   	ret
200001aa7:	0f 9d c0             	setge  al
200001aaa:	0f b6 c0             	movzx  eax,al
200001aad:	8d 44 00 ff          	lea    eax,[rax+rax*1-0x1]
200001ab1:	c3                   	ret

0000000200001ab2 <_Z8x_memcmpPKvS0_y>:
200001ab2:	31 c0                	xor    eax,eax
200001ab4:	4c 39 c0             	cmp    rax,r8
200001ab7:	74 14                	je     200001acd <_Z8x_memcmpPKvS0_y+0x1b>
200001ab9:	44 8a 0c 01          	mov    r9b,BYTE PTR [rcx+rax*1]
200001abd:	48 ff c0             	inc    rax
200001ac0:	44 3a 4c 02 ff       	cmp    r9b,BYTE PTR [rdx+rax*1-0x1]
200001ac5:	74 ed                	je     200001ab4 <_Z8x_memcmpPKvS0_y+0x2>
200001ac7:	19 c0                	sbb    eax,eax
200001ac9:	83 c8 01             	or     eax,0x1
200001acc:	c3                   	ret
200001acd:	31 c0                	xor    eax,eax
200001acf:	c3                   	ret

0000000200001ad0 <_Z8x_strlenPKc>:
200001ad0:	48 89 c8             	mov    rax,rcx
200001ad3:	a8 03                	test   al,0x3
200001ad5:	74 0d                	je     200001ae4 <_Z8x_strlenPKc+0x14>
200001ad7:	80 38 00             	cmp    BYTE PTR [rax],0x0
200001ada:	74 2b                	je     200001b07 <_Z8x_strlenPKc+0x37>
200001adc:	48 ff c0             	inc    rax
200001adf:	eb f2                	jmp    200001ad3 <_Z8x_strlenPKc+0x3>
200001ae1:	48 89 d0             	mov    rax,rdx
200001ae4:	44 8b 00             	mov    r8d,DWORD PTR [rax]
200001ae7:	48 8d 50 04          	lea    rdx,[rax+0x4]
200001aeb:	45 8d 88 ff fe fe fe 	lea    r9d,[r8-0x1010101]
200001af2:	41 f7 d0             	not    r8d
200001af5:	45 21 c8             	and    r8d,r9d
200001af8:	41 81 e0 80 80 80 80 	and    r8d,0x80808080
200001aff:	74 e0                	je     200001ae1 <_Z8x_strlenPKc+0x11>
200001b01:	80 7a fc 00          	cmp    BYTE PTR [rdx-0x4],0x0
200001b05:	75 04                	jne    200001b0b <_Z8x_strlenPKc+0x3b>
200001b07:	48 29 c8             	sub    rax,rcx
200001b0a:	c3                   	ret
200001b0b:	80 7a fd 00          	cmp    BYTE PTR [rdx-0x3],0x0
200001b0f:	75 07                	jne    200001b18 <_Z8x_strlenPKc+0x48>
200001b11:	48 29 c8             	sub    rax,rcx
200001b14:	48 ff c0             	inc    rax
200001b17:	c3                   	ret
200001b18:	80 7a fe 00          	cmp    BYTE PTR [rdx-0x2],0x0
200001b1c:	75 08                	jne    200001b26 <_Z8x_strlenPKc+0x56>
200001b1e:	48 29 c8             	sub    rax,rcx
200001b21:	48 83 c0 02          	add    rax,0x2
200001b25:	c3                   	ret
200001b26:	80 7a ff 00          	cmp    BYTE PTR [rdx-0x1],0x0
200001b2a:	75 b5                	jne    200001ae1 <_Z8x_strlenPKc+0x11>
200001b2c:	48 29 c8             	sub    rax,rcx
200001b2f:	48 83 c0 03          	add    rax,0x3
200001b33:	c3                   	ret

0000000200001b34 <_Z8x_strcatPcS_>:
200001b34:	48 83 ec 28          	sub    rsp,0x28
200001b38:	49 89 ca             	mov    r10,rcx
200001b3b:	48 89 54 24 38       	mov    QWORD PTR [rsp+0x38],rdx
200001b40:	e8 8b ff ff ff       	call   200001ad0 <_Z8x_strlenPKc>
200001b45:	48 8b 54 24 38       	mov    rdx,QWORD PTR [rsp+0x38]
200001b4a:	48 8d 0c 01          	lea    rcx,[rcx+rax*1]
200001b4e:	e8 05 ff ff ff       	call   200001a58 <_Z8x_strcpyPcPKc>
200001b53:	4c 89 d0             	mov    rax,r10
200001b56:	48 83 c4 28          	add    rsp,0x28
200001b5a:	c3                   	ret

0000000200001b5b <_Z8x_wcslenPKw>:
200001b5b:	31 c0                	xor    eax,eax
200001b5d:	66 83 3c 41 00       	cmp    WORD PTR [rcx+rax*2],0x0
200001b62:	74 2c                	je     200001b90 <_Z8x_wcslenPKw+0x35>
200001b64:	66 83 7c 41 02 00    	cmp    WORD PTR [rcx+rax*2+0x2],0x0
200001b6a:	75 04                	jne    200001b70 <_Z8x_wcslenPKw+0x15>
200001b6c:	48 ff c0             	inc    rax
200001b6f:	c3                   	ret
200001b70:	66 83 7c 41 04 00    	cmp    WORD PTR [rcx+rax*2+0x4],0x0
200001b76:	75 05                	jne    200001b7d <_Z8x_wcslenPKw+0x22>
200001b78:	48 83 c0 02          	add    rax,0x2
200001b7c:	c3                   	ret
200001b7d:	66 83 7c 41 06 00    	cmp    WORD PTR [rcx+rax*2+0x6],0x0
200001b83:	75 05                	jne    200001b8a <_Z8x_wcslenPKw+0x2f>
200001b85:	48 83 c0 03          	add    rax,0x3
200001b89:	c3                   	ret
200001b8a:	48 83 c0 04          	add    rax,0x4
200001b8e:	eb cd                	jmp    200001b5d <_Z8x_wcslenPKw+0x2>
200001b90:	c3                   	ret

0000000200001b91 <_Z8x_wcscpyPwPKw>:
200001b91:	31 c0                	xor    eax,eax
200001b93:	66 44 8b 04 02       	mov    r8w,WORD PTR [rdx+rax*1]
200001b98:	66 44 89 04 01       	mov    WORD PTR [rcx+rax*1],r8w
200001b9d:	48 83 c0 02          	add    rax,0x2
200001ba1:	66 45 85 c0          	test   r8w,r8w
200001ba5:	75 ec                	jne    200001b93 <_Z8x_wcscpyPwPKw+0x2>
200001ba7:	c3                   	ret

0000000200001ba8 <_Z8x_wcscmpPwS_>:
200001ba8:	31 c0                	xor    eax,eax
200001baa:	66 44 8b 04 01       	mov    r8w,WORD PTR [rcx+rax*1]
200001baf:	66 44 3b 04 02       	cmp    r8w,WORD PTR [rdx+rax*1]
200001bb4:	75 0d                	jne    200001bc3 <_Z8x_wcscmpPwS_+0x1b>
200001bb6:	48 83 c0 02          	add    rax,0x2
200001bba:	66 45 85 c0          	test   r8w,r8w
200001bbe:	75 ea                	jne    200001baa <_Z8x_wcscmpPwS_+0x2>
200001bc0:	31 c0                	xor    eax,eax
200001bc2:	c3                   	ret
200001bc3:	19 c0                	sbb    eax,eax
200001bc5:	83 c8 01             	or     eax,0x1
200001bc8:	c3                   	ret

0000000200001bc9 <_Z8x_wcscatPwS_>:
200001bc9:	48 83 ec 28          	sub    rsp,0x28
200001bcd:	49 89 c9             	mov    r9,rcx
200001bd0:	e8 86 ff ff ff       	call   200001b5b <_Z8x_wcslenPKw>
200001bd5:	48 8d 0c 41          	lea    rcx,[rcx+rax*2]
200001bd9:	e8 b3 ff ff ff       	call   200001b91 <_Z8x_wcscpyPwPKw>
200001bde:	4c 89 c8             	mov    rax,r9
200001be1:	48 83 c4 28          	add    rsp,0x28
200001be5:	c3                   	ret

0000000200001be6 <_Z10x_toLowerWw>:
200001be6:	8d 51 bf             	lea    edx,[rcx-0x41]
200001be9:	89 c8                	mov    eax,ecx
200001beb:	66 83 fa 19          	cmp    dx,0x19
200001bef:	77 03                	ja     200001bf4 <_Z10x_toLowerWw+0xe>
200001bf1:	83 c8 60             	or     eax,0x60
200001bf4:	c3                   	ret

0000000200001bf5 <_Z10x_mbstowcsPwPcy>:
200001bf5:	44 89 c0             	mov    eax,r8d
200001bf8:	ff c8                	dec    eax
200001bfa:	78 21                	js     200001c1d <_Z10x_mbstowcsPwPcy+0x28>
200001bfc:	66 44 0f be 0a       	movsx  r9w,BYTE PTR [rdx]
200001c01:	48 83 c1 02          	add    rcx,0x2
200001c05:	48 ff c2             	inc    rdx
200001c08:	66 44 89 49 fe       	mov    WORD PTR [rcx-0x2],r9w
200001c0d:	66 45 85 c9          	test   r9w,r9w
200001c11:	75 e5                	jne    200001bf8 <_Z10x_mbstowcsPwPcy+0x3>
200001c13:	48 98                	cdqe
200001c15:	49 29 c0             	sub    r8,rax
200001c18:	49 8d 40 ff          	lea    rax,[r8-0x1]
200001c1c:	c3                   	ret
200001c1d:	48 63 d0             	movsxd rdx,eax
200001c20:	4c 89 c0             	mov    rax,r8
200001c23:	48 29 d0             	sub    rax,rdx
200001c26:	c3                   	ret

0000000200001c27 <_Z10x_wcstombsPcPwy>:
200001c27:	31 c0                	xor    eax,eax
200001c29:	4c 39 c0             	cmp    rax,r8
200001c2c:	74 18                	je     200001c46 <_Z10x_wcstombsPcPwy+0x1f>
200001c2e:	66 44 8b 0c 42       	mov    r9w,WORD PTR [rdx+rax*2]
200001c33:	66 41 81 f9 ff 00    	cmp    r9w,0xff
200001c39:	77 15                	ja     200001c50 <_Z10x_wcstombsPcPwy+0x29>
200001c3b:	44 88 0c 01          	mov    BYTE PTR [rcx+rax*1],r9b
200001c3f:	66 83 3c 42 00       	cmp    WORD PTR [rdx+rax*2],0x0
200001c44:	75 05                	jne    200001c4b <_Z10x_wcstombsPcPwy+0x24>
200001c46:	c6 04 01 00          	mov    BYTE PTR [rcx+rax*1],0x0
200001c4a:	c3                   	ret
200001c4b:	48 ff c0             	inc    rax
200001c4e:	eb d9                	jmp    200001c29 <_Z10x_wcstombsPcPwy+0x2>
200001c50:	48 83 c8 ff          	or     rax,0xffffffffffffffff
200001c54:	c3                   	ret

0000000200001c55 <_Z14x_mbs_endswithPcS_>:
200001c55:	48 85 c9             	test   rcx,rcx
200001c58:	74 47                	je     200001ca1 <_Z14x_mbs_endswithPcS_+0x4c>
200001c5a:	53                   	push   rbx
200001c5b:	48 89 d3             	mov    rbx,rdx
200001c5e:	31 d2                	xor    edx,edx
200001c60:	48 83 ec 20          	sub    rsp,0x20
200001c64:	48 85 db             	test   rbx,rbx
200001c67:	74 30                	je     200001c99 <_Z14x_mbs_endswithPcS_+0x44>
200001c69:	e8 62 fe ff ff       	call   200001ad0 <_Z8x_strlenPKc>
200001c6e:	49 89 ca             	mov    r10,rcx
200001c71:	48 89 d9             	mov    rcx,rbx
200001c74:	49 89 c3             	mov    r11,rax
200001c77:	e8 54 fe ff ff       	call   200001ad0 <_Z8x_strlenPKc>
200001c7c:	31 d2                	xor    edx,edx
200001c7e:	41 39 c3             	cmp    r11d,eax
200001c81:	72 16                	jb     200001c99 <_Z14x_mbs_endswithPcS_+0x44>
200001c83:	41 29 c3             	sub    r11d,eax
200001c86:	48 89 da             	mov    rdx,rbx
200001c89:	4b 8d 0c 1a          	lea    rcx,[r10+r11*1]
200001c8d:	e8 fe fd ff ff       	call   200001a90 <_Z8x_strcmpPcS_>
200001c92:	31 d2                	xor    edx,edx
200001c94:	85 c0                	test   eax,eax
200001c96:	0f 94 c2             	sete   dl
200001c99:	48 83 c4 20          	add    rsp,0x20
200001c9d:	89 d0                	mov    eax,edx
200001c9f:	5b                   	pop    rbx
200001ca0:	c3                   	ret
200001ca1:	31 c0                	xor    eax,eax
200001ca3:	c3                   	ret

0000000200001ca4 <_Z14x_wcs_endswithPwS_>:
200001ca4:	48 85 c9             	test   rcx,rcx
200001ca7:	74 3b                	je     200001ce4 <_Z14x_wcs_endswithPwS_+0x40>
200001ca9:	48 85 d2             	test   rdx,rdx
200001cac:	74 36                	je     200001ce4 <_Z14x_wcs_endswithPwS_+0x40>
200001cae:	48 83 ec 28          	sub    rsp,0x28
200001cb2:	49 89 c9             	mov    r9,rcx
200001cb5:	e8 a1 fe ff ff       	call   200001b5b <_Z8x_wcslenPKw>
200001cba:	48 89 d1             	mov    rcx,rdx
200001cbd:	49 89 c0             	mov    r8,rax
200001cc0:	e8 96 fe ff ff       	call   200001b5b <_Z8x_wcslenPKw>
200001cc5:	31 c9                	xor    ecx,ecx
200001cc7:	41 39 c0             	cmp    r8d,eax
200001cca:	72 1b                	jb     200001ce7 <_Z14x_wcs_endswithPwS_+0x43>
200001ccc:	41 29 c0             	sub    r8d,eax
200001ccf:	4d 01 c0             	add    r8,r8
200001cd2:	4b 8d 0c 01          	lea    rcx,[r9+r8*1]
200001cd6:	e8 cd fe ff ff       	call   200001ba8 <_Z8x_wcscmpPwS_>
200001cdb:	31 c9                	xor    ecx,ecx
200001cdd:	85 c0                	test   eax,eax
200001cdf:	0f 94 c1             	sete   cl
200001ce2:	eb 03                	jmp    200001ce7 <_Z14x_wcs_endswithPwS_+0x43>
200001ce4:	31 c0                	xor    eax,eax
200001ce6:	c3                   	ret
200001ce7:	89 c8                	mov    eax,ecx
200001ce9:	48 83 c4 28          	add    rsp,0x28
200001ced:	c3                   	ret
200001cee:	90                   	nop
200001cef:	90                   	nop

0000000200001cf0 <_Z18GetHashFromStringAPcy>:
200001cf0:	48 85 c9             	test   rcx,rcx
200001cf3:	75 06                	jne    200001cfb <_Z18GetHashFromStringAPcy+0xb>
200001cf5:	b8 c5 9d 1c 81       	mov    eax,0x811c9dc5
200001cfa:	c3                   	ret
200001cfb:	45 31 c0             	xor    r8d,r8d
200001cfe:	b8 c5 9d 1c 81       	mov    eax,0x811c9dc5
200001d03:	4c 39 c2             	cmp    rdx,r8
200001d06:	74 13                	je     200001d1b <_Z18GetHashFromStringAPcy+0x2b>
200001d08:	46 0f be 0c 01       	movsx  r9d,BYTE PTR [rcx+r8*1]
200001d0d:	49 ff c0             	inc    r8
200001d10:	44 31 c8             	xor    eax,r9d
200001d13:	69 c0 93 01 00 01    	imul   eax,eax,0x1000193
200001d19:	eb e8                	jmp    200001d03 <_Z18GetHashFromStringAPcy+0x13>
200001d1b:	c3                   	ret

0000000200001d1c <_Z18GetHashFromStringWPwy>:
200001d1c:	48 85 c9             	test   rcx,rcx
200001d1f:	75 06                	jne    200001d27 <_Z18GetHashFromStringWPwy+0xb>
200001d21:	b8 c5 9d 1c 81       	mov    eax,0x811c9dc5
200001d26:	c3                   	ret
200001d27:	45 31 c0             	xor    r8d,r8d
200001d2a:	b8 c5 9d 1c 81       	mov    eax,0x811c9dc5
200001d2f:	4c 39 c2             	cmp    rdx,r8
200001d32:	74 13                	je     200001d47 <_Z18GetHashFromStringWPwy+0x2b>
200001d34:	46 0f b7 0c 41       	movzx  r9d,WORD PTR [rcx+r8*2]
200001d39:	49 ff c0             	inc    r8
200001d3c:	44 31 c8             	xor    eax,r9d
200001d3f:	69 c0 93 01 00 01    	imul   eax,eax,0x1000193
200001d45:	eb e8                	jmp    200001d2f <_Z18GetHashFromStringWPwy+0x13>
200001d47:	c3                   	ret
200001d48:	90                   	nop
200001d49:	90                   	nop
200001d4a:	90                   	nop
200001d4b:	90                   	nop
200001d4c:	90                   	nop
200001d4d:	90                   	nop
200001d4e:	90                   	nop
200001d4f:	90                   	nop

0000000200001d50 <_ZN6Memory19LdrGetModuleAddressEm>:
200001d50:	41 54                	push   r12
200001d52:	55                   	push   rbp
200001d53:	31 ed                	xor    ebp,ebp
200001d55:	57                   	push   rdi
200001d56:	56                   	push   rsi
200001d57:	89 ce                	mov    esi,ecx
200001d59:	53                   	push   rbx
200001d5a:	48 83 ec 20          	sub    rsp,0x20
200001d5e:	65 48 8b 04 25 60 00 	mov    rax,QWORD PTR gs:0x60
200001d65:	00 00
200001d67:	48 8b 40 18          	mov    rax,QWORD PTR [rax+0x18]
200001d6b:	48 8b 58 20          	mov    rbx,QWORD PTR [rax+0x20]
200001d6f:	4c 8d 60 20          	lea    r12,[rax+0x20]
200001d73:	4c 39 e3             	cmp    rbx,r12
200001d76:	74 29                	je     200001da1 <_ZN6Memory19LdrGetModuleAddressEm+0x51>
200001d78:	48 8b 7b 50          	mov    rdi,QWORD PTR [rbx+0x50]
200001d7c:	48 85 ff             	test   rdi,rdi
200001d7f:	74 1b                	je     200001d9c <_ZN6Memory19LdrGetModuleAddressEm+0x4c>
200001d81:	48 89 f9             	mov    rcx,rdi
200001d84:	e8 d2 fd ff ff       	call   200001b5b <_Z8x_wcslenPKw>
200001d89:	48 89 f9             	mov    rcx,rdi
200001d8c:	48 89 c2             	mov    rdx,rax
200001d8f:	e8 88 ff ff ff       	call   200001d1c <_Z18GetHashFromStringWPwy>
200001d94:	39 f0                	cmp    eax,esi
200001d96:	75 04                	jne    200001d9c <_ZN6Memory19LdrGetModuleAddressEm+0x4c>
200001d98:	48 8b 6b 20          	mov    rbp,QWORD PTR [rbx+0x20]
200001d9c:	48 8b 1b             	mov    rbx,QWORD PTR [rbx]
200001d9f:	eb d2                	jmp    200001d73 <_ZN6Memory19LdrGetModuleAddressEm+0x23>
200001da1:	48 83 c4 20          	add    rsp,0x20
200001da5:	48 89 e8             	mov    rax,rbp
200001da8:	5b                   	pop    rbx
200001da9:	5e                   	pop    rsi
200001daa:	5f                   	pop    rdi
200001dab:	5d                   	pop    rbp
200001dac:	41 5c                	pop    r12
200001dae:	c3                   	ret

0000000200001daf <_ZN6Memory19LdrGetSymbolAddressEP11HINSTANCE__m>:
200001daf:	41 57                	push   r15
200001db1:	41 56                	push   r14
200001db3:	41 55                	push   r13
200001db5:	41 54                	push   r12
200001db7:	55                   	push   rbp
200001db8:	57                   	push   rdi
200001db9:	56                   	push   rsi
200001dba:	31 f6                	xor    esi,esi
200001dbc:	53                   	push   rbx
200001dbd:	48 83 ec 38          	sub    rsp,0x38
200001dc1:	48 85 c9             	test   rcx,rcx
200001dc4:	74 7b                	je     200001e41 <_ZN6Memory19LdrGetSymbolAddressEP11HINSTANCE__m+0x92>
200001dc6:	48 63 41 3c          	movsxd rax,DWORD PTR [rcx+0x3c]
200001dca:	48 89 cb             	mov    rbx,rcx
200001dcd:	8b bc 01 88 00 00 00 	mov    edi,DWORD PTR [rcx+rax*1+0x88]
200001dd4:	48 01 cf             	add    rdi,rcx
200001dd7:	48 63 47 20          	movsxd rax,DWORD PTR [rdi+0x20]
200001ddb:	85 c0                	test   eax,eax
200001ddd:	74 62                	je     200001e41 <_ZN6Memory19LdrGetSymbolAddressEP11HINSTANCE__m+0x92>
200001ddf:	4c 63 6f 24          	movsxd r13,DWORD PTR [rdi+0x24]
200001de3:	48 01 d8             	add    rax,rbx
200001de6:	4c 63 77 1c          	movsxd r14,DWORD PTR [rdi+0x1c]
200001dea:	41 89 d7             	mov    r15d,edx
200001ded:	48 89 44 24 28       	mov    QWORD PTR [rsp+0x28],rax
200001df2:	31 ed                	xor    ebp,ebp
200001df4:	4a 8d 0c 29          	lea    rcx,[rcx+r13*1]
200001df8:	49 01 de             	add    r14,rbx
200001dfb:	48 89 4c 24 20       	mov    QWORD PTR [rsp+0x20],rcx
200001e00:	3b 6f 18             	cmp    ebp,DWORD PTR [rdi+0x18]
200001e03:	73 3c                	jae    200001e41 <_ZN6Memory19LdrGetSymbolAddressEP11HINSTANCE__m+0x92>
200001e05:	48 8b 44 24 28       	mov    rax,QWORD PTR [rsp+0x28]
200001e0a:	41 89 ed             	mov    r13d,ebp
200001e0d:	4e 63 24 a8          	movsxd r12,DWORD PTR [rax+r13*4]
200001e11:	49 01 dc             	add    r12,rbx
200001e14:	4c 89 e1             	mov    rcx,r12
200001e17:	e8 b4 fc ff ff       	call   200001ad0 <_Z8x_strlenPKc>
200001e1c:	4c 89 e1             	mov    rcx,r12
200001e1f:	48 89 c2             	mov    rdx,rax
200001e22:	e8 c9 fe ff ff       	call   200001cf0 <_Z18GetHashFromStringAPcy>
200001e27:	44 39 f8             	cmp    eax,r15d
200001e2a:	75 11                	jne    200001e3d <_ZN6Memory19LdrGetSymbolAddressEP11HINSTANCE__m+0x8e>
200001e2c:	48 8b 44 24 20       	mov    rax,QWORD PTR [rsp+0x20]
200001e31:	42 0f b7 04 68       	movzx  eax,WORD PTR [rax+r13*2]
200001e36:	49 63 34 86          	movsxd rsi,DWORD PTR [r14+rax*4]
200001e3a:	48 01 de             	add    rsi,rbx
200001e3d:	ff c5                	inc    ebp
200001e3f:	eb bf                	jmp    200001e00 <_ZN6Memory19LdrGetSymbolAddressEP11HINSTANCE__m+0x51>
200001e41:	48 83 c4 38          	add    rsp,0x38
200001e45:	48 89 f0             	mov    rax,rsi
200001e48:	5b                   	pop    rbx
200001e49:	5e                   	pop    rsi
200001e4a:	5f                   	pop    rdi
200001e4b:	5d                   	pop    rbp
200001e4c:	41 5c                	pop    r12
200001e4e:	41 5d                	pop    r13
200001e50:	41 5e                	pop    r14
200001e52:	41 5f                	pop    r15
200001e54:	c3                   	ret
200001e55:	90                   	nop
200001e56:	90                   	nop
200001e57:	90                   	nop
200001e58:	90                   	nop
200001e59:	90                   	nop
200001e5a:	90                   	nop
200001e5b:	90                   	nop
200001e5c:	90                   	nop
200001e5d:	90                   	nop
200001e5e:	90                   	nop
200001e5f:	90                   	nop

0000000200001e60 <_ZN7Message7PeekPIDEP7_stream>:
200001e60:	57                   	push   rdi
200001e61:	56                   	push   rsi
200001e62:	48 89 ce             	mov    rsi,rcx
200001e65:	53                   	push   rbx
200001e66:	48 83 ec 30          	sub    rsp,0x30
200001e6a:	e8 a7 e1 ff ff       	call   200000016 <InstStart>
200001e6f:	48 8d 7c 24 2c       	lea    rdi,[rsp+0x2c]
200001e74:	48 8b 15 d5 1e 00 00 	mov    rdx,QWORD PTR [rip+0x1ed5]        # 200003d50 <.refptr.__InstanceOffset>
200001e7b:	41 b8 04 00 00 00    	mov    r8d,0x4
200001e81:	48 89 f9             	mov    rcx,rdi
200001e84:	48 8b 1c 10          	mov    rbx,QWORD PTR [rax+rdx*1]
200001e88:	48 8b 16             	mov    rdx,QWORD PTR [rsi]
200001e8b:	31 c0                	xor    eax,eax
200001e8d:	89 44 24 2c          	mov    DWORD PTR [rsp+0x2c],eax
200001e91:	e8 9a fb ff ff       	call   200001a30 <_Z8x_memcpyPvPKvy>
200001e96:	48 8d 8b d0 00 00 00 	lea    rcx,[rbx+0xd0]
200001e9d:	48 89 fa             	mov    rdx,rdi
200001ea0:	41 b8 04 00 00 00    	mov    r8d,0x4
200001ea6:	e8 07 fc ff ff       	call   200001ab2 <_Z8x_memcmpPKvS0_y>
200001eab:	85 c0                	test   eax,eax
200001ead:	0f 94 c0             	sete   al
200001eb0:	48 83 c4 30          	add    rsp,0x30
200001eb4:	5b                   	pop    rbx
200001eb5:	0f b6 c0             	movzx  eax,al
200001eb8:	5e                   	pop    rsi
200001eb9:	5f                   	pop    rdi
200001eba:	c3                   	ret

0000000200001ebb <_ZN7Message15CommandDispatchEP7_stream>:
200001ebb:	55                   	push   rbp
200001ebc:	48 89 cd             	mov    rbp,rcx
200001ebf:	57                   	push   rdi
200001ec0:	56                   	push   rsi
200001ec1:	53                   	push   rbx
200001ec2:	48 83 ec 48          	sub    rsp,0x48
200001ec6:	e8 4b e1 ff ff       	call   200000016 <InstStart>
200001ecb:	48 8b 15 7e 1e 00 00 	mov    rdx,QWORD PTR [rip+0x1e7e]        # 200003d50 <.refptr.__InstanceOffset>
200001ed2:	48 8d 5c 24 28       	lea    rbx,[rsp+0x28]
200001ed7:	44 8b 45 08          	mov    r8d,DWORD PTR [rbp+0x8]
200001edb:	48 8d 7c 24 28       	lea    rdi,[rsp+0x28]
200001ee0:	b9 06 00 00 00       	mov    ecx,0x6
200001ee5:	48 8b 34 10          	mov    rsi,QWORD PTR [rax+rdx*1]
200001ee9:	31 c0                	xor    eax,eax
200001eeb:	48 8b 55 00          	mov    rdx,QWORD PTR [rbp+0x0]
200001eef:	f3 ab                	rep stos DWORD PTR es:[rdi],eax
200001ef1:	48 89 d9             	mov    rcx,rbx
200001ef4:	e8 67 15 00 00       	call   200003460 <_ZN6Parser12CreateParserEP6PARSERPhm>
200001ef9:	48 89 d9             	mov    rcx,rbx
200001efc:	e8 88 16 00 00       	call   200003589 <_ZN6Parser11UnpackDwordEP6PARSER>
200001f01:	48 89 d9             	mov    rcx,rbx
200001f04:	89 86 d0 00 00 00    	mov    DWORD PTR [rsi+0xd0],eax
200001f0a:	e8 7a 16 00 00       	call   200003589 <_ZN6Parser11UnpackDwordEP6PARSER>
200001f0f:	48 89 d9             	mov    rcx,rbx
200001f12:	89 86 c4 00 00 00    	mov    DWORD PTR [rsi+0xc4],eax
200001f18:	e8 6c 16 00 00       	call   200003589 <_ZN6Parser11UnpackDwordEP6PARSER>
200001f1d:	83 f8 01             	cmp    eax,0x1
200001f20:	74 07                	je     200001f29 <_ZN7Message15CommandDispatchEP7_stream+0x6e>
200001f22:	83 f8 02             	cmp    eax,0x2
200001f25:	74 0e                	je     200001f35 <_ZN7Message15CommandDispatchEP7_stream+0x7a>
200001f27:	eb 4d                	jmp    200001f76 <_ZN7Message15CommandDispatchEP7_stream+0xbb>
200001f29:	c7 86 ac 00 00 00 01 	mov    DWORD PTR [rsi+0xac],0x1
200001f30:	00 00 00
200001f33:	eb 41                	jmp    200001f76 <_ZN7Message15CommandDispatchEP7_stream+0xbb>
200001f35:	48 89 d9             	mov    rcx,rbx
200001f38:	e8 4c 16 00 00       	call   200003589 <_ZN6Parser11UnpackDwordEP6PARSER>
200001f3d:	3d fd ff ff 7f       	cmp    eax,0x7ffffffd
200001f42:	74 32                	je     200001f76 <_ZN7Message15CommandDispatchEP7_stream+0xbb>
200001f44:	48 8d 0d 15 1e 00 00 	lea    rcx,[rip+0x1e15]        # 200003d60 <_ZN7Message6CmdMapE>
200001f4b:	48 8b 51 08          	mov    rdx,QWORD PTR [rcx+0x8]
200001f4f:	49 89 c8             	mov    r8,rcx
200001f52:	48 85 d2             	test   rdx,rdx
200001f55:	75 0d                	jne    200001f64 <_ZN7Message15CommandDispatchEP7_stream+0xa9>
200001f57:	48 8b 46 08          	mov    rax,QWORD PTR [rsi+0x8]
200001f5b:	c7 40 68 7f 00 00 00 	mov    DWORD PTR [rax+0x68],0x7f
200001f62:	eb 12                	jmp    200001f76 <_ZN7Message15CommandDispatchEP7_stream+0xbb>
200001f64:	48 83 c1 10          	add    rcx,0x10
200001f68:	41 39 00             	cmp    DWORD PTR [r8],eax
200001f6b:	75 de                	jne    200001f4b <_ZN7Message15CommandDispatchEP7_stream+0x90>
200001f6d:	48 03 56 18          	add    rdx,QWORD PTR [rsi+0x18]
200001f71:	48 89 d9             	mov    rcx,rbx
200001f74:	ff d2                	call   rdx
200001f76:	48 89 d9             	mov    rcx,rbx
200001f79:	e8 47 15 00 00       	call   2000034c5 <_ZN6Parser13DestroyParserEP6PARSER>
200001f7e:	48 83 c4 48          	add    rsp,0x48
200001f82:	5b                   	pop    rbx
200001f83:	5e                   	pop    rsi
200001f84:	5f                   	pop    rdi
200001f85:	5d                   	pop    rbp
200001f86:	c3                   	ret

0000000200001f87 <_ZN7Message10AddMessageEP7_stream>:
200001f87:	53                   	push   rbx
200001f88:	48 89 cb             	mov    rbx,rcx
200001f8b:	48 83 ec 20          	sub    rsp,0x20
200001f8f:	e8 82 e0 ff ff       	call   200000016 <InstStart>
200001f94:	48 8b 15 b5 1d 00 00 	mov    rdx,QWORD PTR [rip+0x1db5]        # 200003d50 <.refptr.__InstanceOffset>
200001f9b:	48 8b 14 10          	mov    rdx,QWORD PTR [rax+rdx*1]
200001f9f:	48 8b 82 00 01 00 00 	mov    rax,QWORD PTR [rdx+0x100]
200001fa6:	48 85 c0             	test   rax,rax
200001fa9:	75 09                	jne    200001fb4 <_ZN7Message10AddMessageEP7_stream+0x2d>
200001fab:	48 89 9a 00 01 00 00 	mov    QWORD PTR [rdx+0x100],rbx
200001fb2:	eb 10                	jmp    200001fc4 <_ZN7Message10AddMessageEP7_stream+0x3d>
200001fb4:	48 89 c2             	mov    rdx,rax
200001fb7:	48 8b 40 10          	mov    rax,QWORD PTR [rax+0x10]
200001fbb:	48 85 c0             	test   rax,rax
200001fbe:	75 f4                	jne    200001fb4 <_ZN7Message10AddMessageEP7_stream+0x2d>
200001fc0:	48 89 5a 10          	mov    QWORD PTR [rdx+0x10],rbx
200001fc4:	48 83 c4 20          	add    rsp,0x20
200001fc8:	5b                   	pop    rbx
200001fc9:	c3                   	ret

0000000200001fca <_ZN7Message10ClearQueueEv>:
200001fca:	53                   	push   rbx
200001fcb:	48 83 ec 20          	sub    rsp,0x20
200001fcf:	e8 42 e0 ff ff       	call   200000016 <InstStart>
200001fd4:	48 8b 15 75 1d 00 00 	mov    rdx,QWORD PTR [rip+0x1d75]        # 200003d50 <.refptr.__InstanceOffset>
200001fdb:	48 8b 04 10          	mov    rax,QWORD PTR [rax+rdx*1]
200001fdf:	48 8b 88 00 01 00 00 	mov    rcx,QWORD PTR [rax+0x100]
200001fe6:	48 85 c9             	test   rcx,rcx
200001fe9:	74 14                	je     200001fff <_ZN7Message10ClearQueueEv+0x35>
200001feb:	83 79 0c 00          	cmp    DWORD PTR [rcx+0xc],0x0
200001fef:	48 8b 59 10          	mov    rbx,QWORD PTR [rcx+0x10]
200001ff3:	74 05                	je     200001ffa <_ZN7Message10ClearQueueEv+0x30>
200001ff5:	e8 78 1a 00 00       	call   200003a72 <_ZN6Stream13DestroyStreamEP7_stream>
200001ffa:	48 89 d9             	mov    rcx,rbx
200001ffd:	eb e7                	jmp    200001fe6 <_ZN7Message10ClearQueueEv+0x1c>
200001fff:	48 83 c4 20          	add    rsp,0x20
200002003:	5b                   	pop    rbx
200002004:	c3                   	ret

0000000200002005 <_ZN7Message13QueueSegmentsEPhm>:
200002005:	41 57                	push   r15
200002007:	41 56                	push   r14
200002009:	41 55                	push   r13
20000200b:	45 31 ed             	xor    r13d,r13d
20000200e:	41 54                	push   r12
200002010:	41 bc 01 00 00 00    	mov    r12d,0x1
200002016:	55                   	push   rbp
200002017:	48 89 cd             	mov    rbp,rcx
20000201a:	57                   	push   rdi
20000201b:	56                   	push   rsi
20000201c:	89 d6                	mov    esi,edx
20000201e:	53                   	push   rbx
20000201f:	48 83 ec 58          	sub    rsp,0x58
200002023:	e8 ee df ff ff       	call   200000016 <InstStart>
200002028:	b9 00 00 30 00       	mov    ecx,0x300000
20000202d:	4c 8d 7c 24 4c       	lea    r15,[rsp+0x4c]
200002032:	48 8b 15 17 1d 00 00 	mov    rdx,QWORD PTR [rip+0x1d17]        # 200003d50 <.refptr.__InstanceOffset>
200002039:	48 8b 1c 10          	mov    rbx,QWORD PTR [rax+rdx*1]
20000203d:	31 c0                	xor    eax,eax
20000203f:	31 d2                	xor    edx,edx
200002041:	89 44 24 48          	mov    DWORD PTR [rsp+0x48],eax
200002045:	89 44 24 4c          	mov    DWORD PTR [rsp+0x4c],eax
200002049:	8d 86 ff ff 2f 00    	lea    eax,[rsi+0x2fffff]
20000204f:	f7 f1                	div    ecx
200002051:	89 44 24 2c          	mov    DWORD PTR [rsp+0x2c],eax
200002055:	48 8d 44 24 48       	lea    rax,[rsp+0x48]
20000205a:	48 89 44 24 30       	mov    QWORD PTR [rsp+0x30],rax
20000205f:	48 8d 45 04          	lea    rax,[rbp+0x4]
200002063:	48 89 44 24 38       	mov    QWORD PTR [rsp+0x38],rax
200002068:	85 f6                	test   esi,esi
20000206a:	0f 84 c3 00 00 00    	je     200002133 <_ZN7Message13QueueSegmentsEPhm+0x12e>
200002070:	bf e4 ff 2f 00       	mov    edi,0x2fffe4
200002075:	48 8b 0b             	mov    rcx,QWORD PTR [rbx]
200002078:	39 fe                	cmp    esi,edi
20000207a:	0f 46 fe             	cmovbe edi,esi
20000207d:	31 d2                	xor    edx,edx
20000207f:	41 89 fe             	mov    r14d,edi
200002082:	29 fe                	sub    esi,edi
200002084:	4d 8d 46 1c          	lea    r8,[r14+0x1c]
200002088:	ff 93 98 01 00 00    	call   QWORD PTR [rbx+0x198]
20000208e:	48 8b 4c 24 30       	mov    rcx,QWORD PTR [rsp+0x30]
200002093:	48 89 ea             	mov    rdx,rbp
200002096:	41 b8 04 00 00 00    	mov    r8d,0x4
20000209c:	48 89 44 24 20       	mov    QWORD PTR [rsp+0x20],rax
2000020a1:	e8 8a f9 ff ff       	call   200001a30 <_Z8x_memcpyPvPKvy>
2000020a6:	48 8b 54 24 38       	mov    rdx,QWORD PTR [rsp+0x38]
2000020ab:	41 b8 04 00 00 00    	mov    r8d,0x4
2000020b1:	4c 89 f9             	mov    rcx,r15
2000020b4:	e8 77 f9 ff ff       	call   200001a30 <_Z8x_memcpyPvPKvy>
2000020b9:	8b 54 24 48          	mov    edx,DWORD PTR [rsp+0x48]
2000020bd:	48 8b 4c 24 20       	mov    rcx,QWORD PTR [rsp+0x20]
2000020c2:	e8 c3 1a 00 00       	call   200003b8a <_ZN6Stream9PackDwordEP7_streamm>
2000020c7:	8b 54 24 4c          	mov    edx,DWORD PTR [rsp+0x4c]
2000020cb:	48 8b 4c 24 20       	mov    rcx,QWORD PTR [rsp+0x20]
2000020d0:	e8 b5 1a 00 00       	call   200003b8a <_ZN6Stream9PackDwordEP7_streamm>
2000020d5:	48 8b 4c 24 20       	mov    rcx,QWORD PTR [rsp+0x20]
2000020da:	ba 05 00 00 00       	mov    edx,0x5
2000020df:	e8 a6 1a 00 00       	call   200003b8a <_ZN6Stream9PackDwordEP7_streamm>
2000020e4:	48 8b 4c 24 20       	mov    rcx,QWORD PTR [rsp+0x20]
2000020e9:	44 89 e2             	mov    edx,r12d
2000020ec:	41 ff c4             	inc    r12d
2000020ef:	e8 96 1a 00 00       	call   200003b8a <_ZN6Stream9PackDwordEP7_streamm>
2000020f4:	8b 54 24 2c          	mov    edx,DWORD PTR [rsp+0x2c]
2000020f8:	48 8b 4c 24 20       	mov    rcx,QWORD PTR [rsp+0x20]
2000020fd:	e8 88 1a 00 00       	call   200003b8a <_ZN6Stream9PackDwordEP7_streamm>
200002102:	48 8b 4c 24 20       	mov    rcx,QWORD PTR [rsp+0x20]
200002107:	89 fa                	mov    edx,edi
200002109:	e8 7c 1a 00 00       	call   200003b8a <_ZN6Stream9PackDwordEP7_streamm>
20000210e:	48 8b 4c 24 20       	mov    rcx,QWORD PTR [rsp+0x20]
200002113:	44 89 ea             	mov    edx,r13d
200002116:	4d 89 f0             	mov    r8,r14
200002119:	48 01 ea             	add    rdx,rbp
20000211c:	41 01 fd             	add    r13d,edi
20000211f:	e8 64 1b 00 00       	call   200003c88 <_ZN6Stream9PackBytesEP7_streamPhy>
200002124:	48 8b 4c 24 20       	mov    rcx,QWORD PTR [rsp+0x20]
200002129:	e8 59 fe ff ff       	call   200001f87 <_ZN7Message10AddMessageEP7_stream>
20000212e:	e9 35 ff ff ff       	jmp    200002068 <_ZN7Message13QueueSegmentsEPhm+0x63>
200002133:	48 83 c4 58          	add    rsp,0x58
200002137:	5b                   	pop    rbx
200002138:	5e                   	pop    rsi
200002139:	5f                   	pop    rdi
20000213a:	5d                   	pop    rbp
20000213b:	41 5c                	pop    r12
20000213d:	41 5d                	pop    r13
20000213f:	41 5e                	pop    r14
200002141:	41 5f                	pop    r15
200002143:	c3                   	ret

0000000200002144 <_ZN7Message13OutboundQueueEP7_stream>:
200002144:	48 83 ec 38          	sub    rsp,0x38
200002148:	48 89 4c 24 28       	mov    QWORD PTR [rsp+0x28],rcx
20000214d:	e8 c4 de ff ff       	call   200000016 <InstStart>
200002152:	48 8b 15 f7 1b 00 00 	mov    rdx,QWORD PTR [rip+0x1bf7]        # 200003d50 <.refptr.__InstanceOffset>
200002159:	48 8b 4c 24 28       	mov    rcx,QWORD PTR [rsp+0x28]
20000215e:	48 8b 04 10          	mov    rax,QWORD PTR [rax+rdx*1]
200002162:	48 85 c9             	test   rcx,rcx
200002165:	75 10                	jne    200002177 <_ZN7Message13OutboundQueueEP7_stream+0x33>
200002167:	48 8b 40 08          	mov    rax,QWORD PTR [rax+0x8]
20000216b:	c7 40 68 e8 00 00 00 	mov    DWORD PTR [rax+0x68],0xe8
200002172:	48 83 c4 38          	add    rsp,0x38
200002176:	c3                   	ret
200002177:	8b 51 08             	mov    edx,DWORD PTR [rcx+0x8]
20000217a:	81 fa 00 00 30 00    	cmp    edx,0x300000
200002180:	76 0c                	jbe    20000218e <_ZN7Message13OutboundQueueEP7_stream+0x4a>
200002182:	48 8b 09             	mov    rcx,QWORD PTR [rcx]
200002185:	48 83 c4 38          	add    rsp,0x38
200002189:	e9 77 fe ff ff       	jmp    200002005 <_ZN7Message13QueueSegmentsEPhm>
20000218e:	48 83 c4 38          	add    rsp,0x38
200002192:	e9 f0 fd ff ff       	jmp    200001f87 <_ZN7Message10AddMessageEP7_stream>

0000000200002197 <_ZN7Message15MessageTransmitEv>:
200002197:	57                   	push   rdi
200002198:	56                   	push   rsi
200002199:	53                   	push   rbx
20000219a:	48 83 ec 30          	sub    rsp,0x30
20000219e:	e8 73 de ff ff       	call   200000016 <InstStart>
2000021a3:	48 8b 15 a6 1b 00 00 	mov    rdx,QWORD PTR [rip+0x1ba6]        # 200003d50 <.refptr.__InstanceOffset>
2000021aa:	b9 03 00 00 00       	mov    ecx,0x3
2000021af:	48 8b 34 10          	mov    rsi,QWORD PTR [rax+rdx*1]
2000021b3:	e8 26 1a 00 00       	call   200003bde <_ZN6Stream23CreateStreamWithHeadersEm>
2000021b8:	45 31 c0             	xor    r8d,r8d
2000021bb:	48 83 be 00 01 00 00 	cmp    QWORD PTR [rsi+0x100],0x0
2000021c2:	00
2000021c3:	4c 89 44 24 28       	mov    QWORD PTR [rsp+0x28],r8
2000021c8:	48 89 c3             	mov    rbx,rax
2000021cb:	75 29                	jne    2000021f6 <_ZN7Message15MessageTransmitEv+0x5f>
2000021cd:	8b 96 d0 00 00 00    	mov    edx,DWORD PTR [rsi+0xd0]
2000021d3:	48 89 c1             	mov    rcx,rax
2000021d6:	e8 af 19 00 00       	call   200003b8a <_ZN6Stream9PackDwordEP7_streamm>
2000021db:	8b 96 c4 00 00 00    	mov    edx,DWORD PTR [rsi+0xc4]
2000021e1:	48 89 d9             	mov    rcx,rbx
2000021e4:	e8 a1 19 00 00       	call   200003b8a <_ZN6Stream9PackDwordEP7_streamm>
2000021e9:	ba 02 00 00 00       	mov    edx,0x2
2000021ee:	48 89 d9             	mov    rcx,rbx
2000021f1:	e8 94 19 00 00       	call   200003b8a <_ZN6Stream9PackDwordEP7_streamm>
2000021f6:	cc                   	int3
2000021f7:	48 8b be 00 01 00 00 	mov    rdi,QWORD PTR [rsi+0x100]
2000021fe:	48 85 ff             	test   rdi,rdi
200002201:	74 11                	je     200002214 <_ZN7Message15MessageTransmitEv+0x7d>
200002203:	44 8b 47 08          	mov    r8d,DWORD PTR [rdi+0x8]
200002207:	8b 43 08             	mov    eax,DWORD PTR [rbx+0x8]
20000220a:	44 01 c0             	add    eax,r8d
20000220d:	3d 00 00 30 00       	cmp    eax,0x300000
200002212:	76 25                	jbe    200002239 <_ZN7Message15MessageTransmitEv+0xa2>
200002214:	48 8d 7c 24 28       	lea    rdi,[rsp+0x28]
200002219:	48 89 d9             	mov    rcx,rbx
20000221c:	48 89 fa             	mov    rdx,rdi
20000221f:	e8 cc 00 00 00       	call   2000022f0 <_ZN4Http12HttpCallbackEP7_streamPS1_>
200002224:	48 89 d9             	mov    rcx,rbx
200002227:	e8 46 18 00 00       	call   200003a72 <_ZN6Stream13DestroyStreamEP7_stream>
20000222c:	48 83 7c 24 28 00    	cmp    QWORD PTR [rsp+0x28],0x0
200002232:	75 35                	jne    200002269 <_ZN7Message15MessageTransmitEv+0xd2>
200002234:	e9 89 00 00 00       	jmp    2000022c2 <_ZN7Message15MessageTransmitEv+0x12b>
200002239:	48 8b 17             	mov    rdx,QWORD PTR [rdi]
20000223c:	48 85 d2             	test   rdx,rdx
20000223f:	74 1b                	je     20000225c <_ZN7Message15MessageTransmitEv+0xc5>
200002241:	48 89 d9             	mov    rcx,rbx
200002244:	e8 3f 1a 00 00       	call   200003c88 <_ZN6Stream9PackBytesEP7_streamPhy>
200002249:	8b 47 08             	mov    eax,DWORD PTR [rdi+0x8]
20000224c:	01 43 08             	add    DWORD PTR [rbx+0x8],eax
20000224f:	c7 47 0c 01 00 00 00 	mov    DWORD PTR [rdi+0xc],0x1
200002256:	48 8b 7f 10          	mov    rdi,QWORD PTR [rdi+0x10]
20000225a:	eb a2                	jmp    2000021fe <_ZN7Message15MessageTransmitEv+0x67>
20000225c:	48 8b 46 08          	mov    rax,QWORD PTR [rsi+0x8]
200002260:	c7 40 68 e8 00 00 00 	mov    DWORD PTR [rax+0x68],0xe8
200002267:	eb 70                	jmp    2000022d9 <_ZN7Message15MessageTransmitEv+0x142>
200002269:	e8 5c fd ff ff       	call   200001fca <_ZN7Message10ClearQueueEv>
20000226e:	48 8b 4c 24 28       	mov    rcx,QWORD PTR [rsp+0x28]
200002273:	e8 e8 fb ff ff       	call   200001e60 <_ZN7Message7PeekPIDEP7_stream>
200002278:	48 8b 5c 24 28       	mov    rbx,QWORD PTR [rsp+0x28]
20000227d:	85 c0                	test   eax,eax
20000227f:	74 0f                	je     200002290 <_ZN7Message15MessageTransmitEv+0xf9>
200002281:	48 89 d9             	mov    rcx,rbx
200002284:	e8 32 fc ff ff       	call   200001ebb <_ZN7Message15CommandDispatchEP7_stream>
200002289:	48 8b 4c 24 28       	mov    rcx,QWORD PTR [rsp+0x28]
20000228e:	eb 2b                	jmp    2000022bb <_ZN7Message15MessageTransmitEv+0x124>
200002290:	31 c9                	xor    ecx,ecx
200002292:	48 83 7e 68 00       	cmp    QWORD PTR [rsi+0x68],0x0
200002297:	48 89 4c 24 28       	mov    QWORD PTR [rsp+0x28],rcx
20000229c:	74 1a                	je     2000022b8 <_ZN7Message15MessageTransmitEv+0x121>
20000229e:	48 89 d9             	mov    rcx,rbx
2000022a1:	48 89 fa             	mov    rdx,rdi
2000022a4:	e8 49 0b 00 00       	call   200002df2 <_ZN3Smb18PeerConnectIngressEP7_streamPS1_>
2000022a9:	48 8b 4c 24 28       	mov    rcx,QWORD PTR [rsp+0x28]
2000022ae:	48 85 c9             	test   rcx,rcx
2000022b1:	74 05                	je     2000022b8 <_ZN7Message15MessageTransmitEv+0x121>
2000022b3:	e8 8c fe ff ff       	call   200002144 <_ZN7Message13OutboundQueueEP7_stream>
2000022b8:	48 89 d9             	mov    rcx,rbx
2000022bb:	e8 b2 17 00 00       	call   200003a72 <_ZN6Stream13DestroyStreamEP7_stream>
2000022c0:	eb 17                	jmp    2000022d9 <_ZN7Message15MessageTransmitEv+0x142>
2000022c2:	48 8b 86 00 01 00 00 	mov    rax,QWORD PTR [rsi+0x100]
2000022c9:	48 85 c0             	test   rax,rax
2000022cc:	74 0b                	je     2000022d9 <_ZN7Message15MessageTransmitEv+0x142>
2000022ce:	31 d2                	xor    edx,edx
2000022d0:	89 50 0c             	mov    DWORD PTR [rax+0xc],edx
2000022d3:	48 8b 40 10          	mov    rax,QWORD PTR [rax+0x10]
2000022d7:	eb f0                	jmp    2000022c9 <_ZN7Message15MessageTransmitEv+0x132>
2000022d9:	48 83 c4 30          	add    rsp,0x30
2000022dd:	5b                   	pop    rbx
2000022de:	5e                   	pop    rsi
2000022df:	5f                   	pop    rdi
2000022e0:	c3                   	ret
2000022e1:	90                   	nop
2000022e2:	90                   	nop
2000022e3:	90                   	nop
2000022e4:	90                   	nop
2000022e5:	90                   	nop
2000022e6:	90                   	nop
2000022e7:	90                   	nop
2000022e8:	90                   	nop
2000022e9:	90                   	nop
2000022ea:	90                   	nop
2000022eb:	90                   	nop
2000022ec:	90                   	nop
2000022ed:	90                   	nop
2000022ee:	90                   	nop
2000022ef:	90                   	nop

00000002000022f0 <_ZN4Http12HttpCallbackEP7_streamPS1_>:
2000022f0:	41 57                	push   r15
2000022f2:	41 56                	push   r14
2000022f4:	41 55                	push   r13
2000022f6:	49 89 d5             	mov    r13,rdx
2000022f9:	41 54                	push   r12
2000022fb:	49 89 cc             	mov    r12,rcx
2000022fe:	55                   	push   rbp
2000022ff:	57                   	push   rdi
200002300:	56                   	push   rsi
200002301:	53                   	push   rbx
200002302:	31 db                	xor    ebx,ebx
200002304:	48 81 ec c8 00 00 00 	sub    rsp,0xc8
20000230b:	e8 06 dd ff ff       	call   200000016 <InstStart>
200002310:	48 8d 7c 24 68       	lea    rdi,[rsp+0x68]
200002315:	89 5c 24 64          	mov    DWORD PTR [rsp+0x64],ebx
200002319:	48 8b 15 30 1a 00 00 	mov    rdx,QWORD PTR [rip+0x1a30]        # 200003d50 <.refptr.__InstanceOffset>
200002320:	b9 06 00 00 00       	mov    ecx,0x6
200002325:	45 31 db             	xor    r11d,r11d
200002328:	c7 44 24 60 04 00 00 	mov    DWORD PTR [rsp+0x60],0x4
20000232f:	00
200002330:	48 8d 74 24 68       	lea    rsi,[rsp+0x68]
200002335:	48 8b 2c 10          	mov    rbp,QWORD PTR [rax+rdx*1]
200002339:	31 c0                	xor    eax,eax
20000233b:	44 89 5c 24 54       	mov    DWORD PTR [rsp+0x54],r11d
200002340:	4c 8d b4 24 a0 00 00 	lea    r14,[rsp+0xa0]
200002347:	00
200002348:	f3 ab                	rep stos DWORD PTR es:[rdi],eax
20000234a:	b9 08 00 00 00       	mov    ecx,0x8
20000234f:	44 89 5c 24 58       	mov    DWORD PTR [rsp+0x58],r11d
200002354:	48 8d bc 24 80 00 00 	lea    rdi,[rsp+0x80]
20000235b:	00
20000235c:	f3 ab                	rep stos DWORD PTR es:[rdi],eax
20000235e:	48 8b 9d f8 00 00 00 	mov    rbx,QWORD PTR [rbp+0xf8]
200002365:	48 8d bc 24 a0 00 00 	lea    rdi,[rsp+0xa0]
20000236c:	00
20000236d:	b9 08 00 00 00       	mov    ecx,0x8
200002372:	f3 ab                	rep stos DWORD PTR es:[rdi],eax
200002374:	48 8d 05 45 1a 00 00 	lea    rax,[rip+0x1a45]        # 200003dc0 <.rdata>
20000237b:	44 89 5c 24 5c       	mov    DWORD PTR [rsp+0x5c],r11d
200002380:	48 83 7b 48 00       	cmp    QWORD PTR [rbx+0x48],0x0
200002385:	48 89 43 08          	mov    QWORD PTR [rbx+0x8],rax
200002389:	74 2c                	je     2000023b7 <_ZN4Http12HttpCallbackEP7_streamPS1_+0xc7>
20000238b:	48 8b 85 f8 00 00 00 	mov    rax,QWORD PTR [rbp+0xf8]
200002392:	45 31 c9             	xor    r9d,r9d
200002395:	48 8b 50 10          	mov    rdx,QWORD PTR [rax+0x10]
200002399:	48 8b 48 48          	mov    rcx,QWORD PTR [rax+0x48]
20000239d:	44 0f b7 40 18       	movzx  r8d,WORD PTR [rax+0x18]
2000023a2:	ff 95 50 03 00 00    	call   QWORD PTR [rbp+0x350]
2000023a8:	48 89 44 24 48       	mov    QWORD PTR [rsp+0x48],rax
2000023ad:	48 85 c0             	test   rax,rax
2000023b0:	75 2f                	jne    2000023e1 <_ZN4Http12HttpCallbackEP7_streamPS1_+0xf1>
2000023b2:	e9 39 05 00 00       	jmp    2000028f0 <_ZN4Http12HttpCallbackEP7_streamPS1_+0x600>
2000023b7:	45 31 d2             	xor    r10d,r10d
2000023ba:	45 31 c9             	xor    r9d,r9d
2000023bd:	45 31 c0             	xor    r8d,r8d
2000023c0:	ba 01 00 00 00       	mov    edx,0x1
2000023c5:	44 89 54 24 20       	mov    DWORD PTR [rsp+0x20],r10d
2000023ca:	48 8b 0b             	mov    rcx,QWORD PTR [rbx]
2000023cd:	ff 95 48 03 00 00    	call   QWORD PTR [rbp+0x348]
2000023d3:	48 89 43 48          	mov    QWORD PTR [rbx+0x48],rax
2000023d7:	48 85 c0             	test   rax,rax
2000023da:	75 af                	jne    20000238b <_ZN4Http12HttpCallbackEP7_streamPS1_+0x9b>
2000023dc:	e9 0f 05 00 00       	jmp    2000028f0 <_ZN4Http12HttpCallbackEP7_streamPS1_+0x600>
2000023e1:	e8 5a 20 00 00       	call   200004440 <_ZN6Random14RandomNumber32Ev>
2000023e6:	48 8b 8d f8 00 00 00 	mov    rcx,QWORD PTR [rbp+0xf8]
2000023ed:	31 d2                	xor    edx,edx
2000023ef:	c7 44 24 64 00 01 00 	mov    DWORD PTR [rsp+0x64],0x100
2000023f6:	00
2000023f7:	f7 71 50             	div    DWORD PTR [rcx+0x50]
2000023fa:	48 8b 41 58          	mov    rax,QWORD PTR [rcx+0x58]
2000023fe:	83 bd d8 00 00 00 00 	cmp    DWORD PTR [rbp+0xd8],0x0
200002405:	48 8b 3c d0          	mov    rdi,QWORD PTR [rax+rdx*8]
200002409:	74 08                	je     200002413 <_ZN4Http12HttpCallbackEP7_streamPS1_+0x123>
20000240b:	c7 44 24 64 00 01 80 	mov    DWORD PTR [rsp+0x64],0x800100
200002412:	00
200002413:	8b 44 24 64          	mov    eax,DWORD PTR [rsp+0x64]
200002417:	45 31 c9             	xor    r9d,r9d
20000241a:	48 8b 51 08          	mov    rdx,QWORD PTR [rcx+0x8]
20000241e:	49 89 f8             	mov    r8,rdi
200002421:	4c 89 4c 24 28       	mov    QWORD PTR [rsp+0x28],r9
200002426:	48 8b 4c 24 48       	mov    rcx,QWORD PTR [rsp+0x48]
20000242b:	4c 89 4c 24 20       	mov    QWORD PTR [rsp+0x20],r9
200002430:	45 31 c9             	xor    r9d,r9d
200002433:	89 44 24 30          	mov    DWORD PTR [rsp+0x30],eax
200002437:	ff 95 58 03 00 00    	call   QWORD PTR [rbp+0x358]
20000243d:	48 89 c3             	mov    rbx,rax
200002440:	48 85 c0             	test   rax,rax
200002443:	0f 84 9c 04 00 00    	je     2000028e5 <_ZN4Http12HttpCallbackEP7_streamPS1_+0x5f5>
200002449:	83 bd d8 00 00 00 00 	cmp    DWORD PTR [rbp+0xd8],0x0
200002450:	75 13                	jne    200002465 <_ZN4Http12HttpCallbackEP7_streamPS1_+0x175>
200002452:	48 8b 85 f8 00 00 00 	mov    rax,QWORD PTR [rbp+0xf8]
200002459:	45 31 ff             	xor    r15d,r15d
20000245c:	48 83 78 60 00       	cmp    QWORD PTR [rax+0x60],0x0
200002461:	75 4d                	jne    2000024b0 <_ZN4Http12HttpCallbackEP7_streamPS1_+0x1c0>
200002463:	eb 62                	jmp    2000024c7 <_ZN4Http12HttpCallbackEP7_streamPS1_+0x1d7>
200002465:	c7 44 24 64 00 33 00 	mov    DWORD PTR [rsp+0x64],0x3300
20000246c:	00
20000246d:	41 b9 04 00 00 00    	mov    r9d,0x4
200002473:	4c 8d 44 24 64       	lea    r8,[rsp+0x64]
200002478:	48 89 c1             	mov    rcx,rax
20000247b:	ba 1f 00 00 00       	mov    edx,0x1f
200002480:	ff 95 68 03 00 00    	call   QWORD PTR [rbp+0x368]
200002486:	85 c0                	test   eax,eax
200002488:	75 c8                	jne    200002452 <_ZN4Http12HttpCallbackEP7_streamPS1_+0x162>
20000248a:	e9 4d 04 00 00       	jmp    2000028dc <_ZN4Http12HttpCallbackEP7_streamPS1_+0x5ec>
20000248f:	41 83 c8 ff          	or     r8d,0xffffffff
200002493:	48 8b 10             	mov    rdx,QWORD PTR [rax]
200002496:	41 b9 00 00 00 20    	mov    r9d,0x20000000
20000249c:	48 89 d9             	mov    rcx,rbx
20000249f:	ff 95 60 03 00 00    	call   QWORD PTR [rbp+0x360]
2000024a5:	85 c0                	test   eax,eax
2000024a7:	0f 84 2f 04 00 00    	je     2000028dc <_ZN4Http12HttpCallbackEP7_streamPS1_+0x5ec>
2000024ad:	41 ff c7             	inc    r15d
2000024b0:	48 8b 95 f8 00 00 00 	mov    rdx,QWORD PTR [rbp+0xf8]
2000024b7:	44 89 f8             	mov    eax,r15d
2000024ba:	48 8b 52 60          	mov    rdx,QWORD PTR [rdx+0x60]
2000024be:	48 8b 04 c2          	mov    rax,QWORD PTR [rdx+rax*8]
2000024c2:	48 85 c0             	test   rax,rax
2000024c5:	75 c8                	jne    20000248f <_ZN4Http12HttpCallbackEP7_streamPS1_+0x19f>
2000024c7:	83 bd dc 00 00 00 00 	cmp    DWORD PTR [rbp+0xdc],0x0
2000024ce:	0f 84 be 00 00 00    	je     200002592 <_ZN4Http12HttpCallbackEP7_streamPS1_+0x2a2>
2000024d4:	48 8b 85 f8 00 00 00 	mov    rax,QWORD PTR [rbp+0xf8]
2000024db:	41 b9 18 00 00 00    	mov    r9d,0x18
2000024e1:	49 89 f0             	mov    r8,rsi
2000024e4:	48 89 d9             	mov    rcx,rbx
2000024e7:	c7 44 24 68 03 00 00 	mov    DWORD PTR [rsp+0x68],0x3
2000024ee:	00
2000024ef:	ba 26 00 00 00       	mov    edx,0x26
2000024f4:	48 8b 40 20          	mov    rax,QWORD PTR [rax+0x20]
2000024f8:	48 89 44 24 70       	mov    QWORD PTR [rsp+0x70],rax
2000024fd:	ff 95 68 03 00 00    	call   QWORD PTR [rbp+0x368]
200002503:	85 c0                	test   eax,eax
200002505:	0f 84 d1 03 00 00    	je     2000028dc <_ZN4Http12HttpCallbackEP7_streamPS1_+0x5ec>
20000250b:	48 8b 85 f8 00 00 00 	mov    rax,QWORD PTR [rbp+0xf8]
200002512:	48 8b 48 28          	mov    rcx,QWORD PTR [rax+0x28]
200002516:	48 85 c9             	test   rcx,rcx
200002519:	0f 84 03 02 00 00    	je     200002722 <_ZN4Http12HttpCallbackEP7_streamPS1_+0x432>
20000251f:	48 83 78 30 00       	cmp    QWORD PTR [rax+0x30],0x0
200002524:	0f 84 f8 01 00 00    	je     200002722 <_ZN4Http12HttpCallbackEP7_streamPS1_+0x432>
20000252a:	48 8b b5 68 03 00 00 	mov    rsi,QWORD PTR [rbp+0x368]
200002531:	e8 25 f6 ff ff       	call   200001b5b <_Z8x_wcslenPKw>
200002536:	48 8b 95 f8 00 00 00 	mov    rdx,QWORD PTR [rbp+0xf8]
20000253d:	48 89 d9             	mov    rcx,rbx
200002540:	41 89 c1             	mov    r9d,eax
200002543:	4c 8b 42 28          	mov    r8,QWORD PTR [rdx+0x28]
200002547:	ba 02 10 00 00       	mov    edx,0x1002
20000254c:	ff d6                	call   rsi
20000254e:	85 c0                	test   eax,eax
200002550:	0f 84 86 03 00 00    	je     2000028dc <_ZN4Http12HttpCallbackEP7_streamPS1_+0x5ec>
200002556:	48 8b 85 f8 00 00 00 	mov    rax,QWORD PTR [rbp+0xf8]
20000255d:	48 8b b5 68 03 00 00 	mov    rsi,QWORD PTR [rbp+0x368]
200002564:	48 8b 48 30          	mov    rcx,QWORD PTR [rax+0x30]
200002568:	e8 ee f5 ff ff       	call   200001b5b <_Z8x_wcslenPKw>
20000256d:	48 8b 95 f8 00 00 00 	mov    rdx,QWORD PTR [rbp+0xf8]
200002574:	48 89 d9             	mov    rcx,rbx
200002577:	41 89 c1             	mov    r9d,eax
20000257a:	4c 8b 42 30          	mov    r8,QWORD PTR [rdx+0x30]
20000257e:	ba 03 10 00 00       	mov    edx,0x1003
200002583:	ff d6                	call   rsi
200002585:	85 c0                	test   eax,eax
200002587:	0f 85 95 01 00 00    	jne    200002722 <_ZN4Http12HttpCallbackEP7_streamPS1_+0x432>
20000258d:	e9 4a 03 00 00       	jmp    2000028dc <_ZN4Http12HttpCallbackEP7_streamPS1_+0x5ec>
200002592:	83 bd e4 00 00 00 00 	cmp    DWORD PTR [rbp+0xe4],0x0
200002599:	0f 85 83 01 00 00    	jne    200002722 <_ZN4Http12HttpCallbackEP7_streamPS1_+0x432>
20000259f:	48 b8 01 00 00 00 03 	movabs rax,0x300000001
2000025a6:	00 00 00
2000025a9:	45 31 c0             	xor    r8d,r8d
2000025ac:	49 89 f1             	mov    r9,rsi
2000025af:	48 89 fa             	mov    rdx,rdi
2000025b2:	48 89 84 24 a0 00 00 	mov    QWORD PTR [rsp+0xa0],rax
2000025b9:	00
2000025ba:	b8 01 00 00 00       	mov    eax,0x1
2000025bf:	48 c1 e0 20          	shl    rax,0x20
2000025c3:	4c 89 84 24 a8 00 00 	mov    QWORD PTR [rsp+0xa8],r8
2000025ca:	00
2000025cb:	48 89 84 24 b8 00 00 	mov    QWORD PTR [rsp+0xb8],rax
2000025d2:	00
2000025d3:	48 8b 85 f8 00 00 00 	mov    rax,QWORD PTR [rbp+0xf8]
2000025da:	4c 89 84 24 b0 00 00 	mov    QWORD PTR [rsp+0xb0],r8
2000025e1:	00
2000025e2:	4d 89 f0             	mov    r8,r14
2000025e5:	48 8b 48 48          	mov    rcx,QWORD PTR [rax+0x48]
2000025e9:	ff 95 70 03 00 00    	call   QWORD PTR [rbp+0x370]
2000025ef:	85 c0                	test   eax,eax
2000025f1:	0f 85 eb 00 00 00    	jne    2000026e2 <_ZN4Http12HttpCallbackEP7_streamPS1_+0x3f2>
2000025f7:	48 8d 8c 24 80 00 00 	lea    rcx,[rsp+0x80]
2000025fe:	00
2000025ff:	ff 95 78 03 00 00    	call   QWORD PTR [rbp+0x378]
200002605:	85 c0                	test   eax,eax
200002607:	0f 84 0b 01 00 00    	je     200002718 <_ZN4Http12HttpCallbackEP7_streamPS1_+0x428>
20000260d:	48 8b 8c 24 90 00 00 	mov    rcx,QWORD PTR [rsp+0x90]
200002614:	00
200002615:	48 85 c9             	test   rcx,rcx
200002618:	75 12                	jne    20000262c <_ZN4Http12HttpCallbackEP7_streamPS1_+0x33c>
20000261a:	48 8b 8c 24 88 00 00 	mov    rcx,QWORD PTR [rsp+0x88]
200002621:	00
200002622:	48 85 c9             	test   rcx,rcx
200002625:	75 7b                	jne    2000026a2 <_ZN4Http12HttpCallbackEP7_streamPS1_+0x3b2>
200002627:	e9 ec 00 00 00       	jmp    200002718 <_ZN4Http12HttpCallbackEP7_streamPS1_+0x428>
20000262c:	e8 2a f5 ff ff       	call   200001b5b <_Z8x_wcslenPKw>
200002631:	48 85 c0             	test   rax,rax
200002634:	74 e4                	je     20000261a <_ZN4Http12HttpCallbackEP7_streamPS1_+0x32a>
200002636:	48 8b 84 24 90 00 00 	mov    rax,QWORD PTR [rsp+0x90]
20000263d:	00
20000263e:	48 8b 4d 00          	mov    rcx,QWORD PTR [rbp+0x0]
200002642:	41 b8 18 00 00 00    	mov    r8d,0x18
200002648:	31 d2                	xor    edx,edx
20000264a:	c7 44 24 68 03 00 00 	mov    DWORD PTR [rsp+0x68],0x3
200002651:	00
200002652:	48 89 44 24 70       	mov    QWORD PTR [rsp+0x70],rax
200002657:	48 8b 84 24 98 00 00 	mov    rax,QWORD PTR [rsp+0x98]
20000265e:	00
20000265f:	48 c7 85 f0 00 00 00 	mov    QWORD PTR [rbp+0xf0],0x18
200002666:	18 00 00 00
20000266a:	48 89 44 24 78       	mov    QWORD PTR [rsp+0x78],rax
20000266f:	ff 95 98 01 00 00    	call   QWORD PTR [rbp+0x198]
200002675:	4c 8b 85 f0 00 00 00 	mov    r8,QWORD PTR [rbp+0xf0]
20000267c:	48 89 f2             	mov    rdx,rsi
20000267f:	48 89 85 e8 00 00 00 	mov    QWORD PTR [rbp+0xe8],rax
200002686:	48 89 c1             	mov    rcx,rax
200002689:	e8 a2 f3 ff ff       	call   200001a30 <_Z8x_memcpyPvPKvy>
20000268e:	31 c9                	xor    ecx,ecx
200002690:	48 89 8c 24 90 00 00 	mov    QWORD PTR [rsp+0x90],rcx
200002697:	00
200002698:	48 89 8c 24 98 00 00 	mov    QWORD PTR [rsp+0x98],rcx
20000269f:	00
2000026a0:	eb 76                	jmp    200002718 <_ZN4Http12HttpCallbackEP7_streamPS1_+0x428>
2000026a2:	e8 b4 f4 ff ff       	call   200001b5b <_Z8x_wcslenPKw>
2000026a7:	48 85 c0             	test   rax,rax
2000026aa:	74 6c                	je     200002718 <_ZN4Http12HttpCallbackEP7_streamPS1_+0x428>
2000026ac:	48 8b 84 24 88 00 00 	mov    rax,QWORD PTR [rsp+0x88]
2000026b3:	00
2000026b4:	49 89 f1             	mov    r9,rsi
2000026b7:	4d 89 f0             	mov    r8,r14
2000026ba:	48 89 fa             	mov    rdx,rdi
2000026bd:	48 c7 84 24 a0 00 00 	mov    QWORD PTR [rsp+0xa0],0x2
2000026c4:	00 02 00 00 00
2000026c9:	48 89 84 24 a8 00 00 	mov    QWORD PTR [rsp+0xa8],rax
2000026d0:	00
2000026d1:	48 8b 85 f8 00 00 00 	mov    rax,QWORD PTR [rbp+0xf8]
2000026d8:	48 8b 48 48          	mov    rcx,QWORD PTR [rax+0x48]
2000026dc:	ff 95 70 03 00 00    	call   QWORD PTR [rbp+0x370]
2000026e2:	48 8b 4d 00          	mov    rcx,QWORD PTR [rbp+0x0]
2000026e6:	31 d2                	xor    edx,edx
2000026e8:	41 b8 18 00 00 00    	mov    r8d,0x18
2000026ee:	48 c7 85 f0 00 00 00 	mov    QWORD PTR [rbp+0xf0],0x18
2000026f5:	18 00 00 00
2000026f9:	ff 95 98 01 00 00    	call   QWORD PTR [rbp+0x198]
2000026ff:	4c 8b 85 f0 00 00 00 	mov    r8,QWORD PTR [rbp+0xf0]
200002706:	48 89 f2             	mov    rdx,rsi
200002709:	48 89 85 e8 00 00 00 	mov    QWORD PTR [rbp+0xe8],rax
200002710:	48 89 c1             	mov    rcx,rax
200002713:	e8 18 f3 ff ff       	call   200001a30 <_Z8x_memcpyPvPKvy>
200002718:	c7 85 e4 00 00 00 01 	mov    DWORD PTR [rbp+0xe4],0x1
20000271f:	00 00 00
200002722:	4c 8b 85 e8 00 00 00 	mov    r8,QWORD PTR [rbp+0xe8]
200002729:	4d 85 c0             	test   r8,r8
20000272c:	75 2f                	jne    20000275d <_ZN4Http12HttpCallbackEP7_streamPS1_+0x46d>
20000272e:	41 8b 44 24 08       	mov    eax,DWORD PTR [r12+0x8]
200002733:	31 d2                	xor    edx,edx
200002735:	45 31 c0             	xor    r8d,r8d
200002738:	48 89 d9             	mov    rcx,rbx
20000273b:	48 89 54 24 30       	mov    QWORD PTR [rsp+0x30],rdx
200002740:	31 d2                	xor    edx,edx
200002742:	89 44 24 28          	mov    DWORD PTR [rsp+0x28],eax
200002746:	89 44 24 20          	mov    DWORD PTR [rsp+0x20],eax
20000274a:	4d 8b 0c 24          	mov    r9,QWORD PTR [r12]
20000274e:	ff 95 80 03 00 00    	call   QWORD PTR [rbp+0x380]
200002754:	85 c0                	test   eax,eax
200002756:	75 23                	jne    20000277b <_ZN4Http12HttpCallbackEP7_streamPS1_+0x48b>
200002758:	e9 7f 01 00 00       	jmp    2000028dc <_ZN4Http12HttpCallbackEP7_streamPS1_+0x5ec>
20000275d:	44 8b 8d f0 00 00 00 	mov    r9d,DWORD PTR [rbp+0xf0]
200002764:	ba 26 00 00 00       	mov    edx,0x26
200002769:	48 89 d9             	mov    rcx,rbx
20000276c:	ff 95 68 03 00 00    	call   QWORD PTR [rbp+0x368]
200002772:	85 c0                	test   eax,eax
200002774:	75 b8                	jne    20000272e <_ZN4Http12HttpCallbackEP7_streamPS1_+0x43e>
200002776:	e9 61 01 00 00       	jmp    2000028dc <_ZN4Http12HttpCallbackEP7_streamPS1_+0x5ec>
20000277b:	31 d2                	xor    edx,edx
20000277d:	48 89 d9             	mov    rcx,rbx
200002780:	ff 95 88 03 00 00    	call   QWORD PTR [rbp+0x388]
200002786:	85 c0                	test   eax,eax
200002788:	0f 84 4e 01 00 00    	je     2000028dc <_ZN4Http12HttpCallbackEP7_streamPS1_+0x5ec>
20000278e:	31 c0                	xor    eax,eax
200002790:	45 31 c0             	xor    r8d,r8d
200002793:	4c 8d 4c 24 5c       	lea    r9,[rsp+0x5c]
200002798:	ba 13 00 00 20       	mov    edx,0x20000013
20000279d:	48 89 44 24 28       	mov    QWORD PTR [rsp+0x28],rax
2000027a2:	48 8d 44 24 60       	lea    rax,[rsp+0x60]
2000027a7:	48 89 d9             	mov    rcx,rbx
2000027aa:	48 89 44 24 20       	mov    QWORD PTR [rsp+0x20],rax
2000027af:	ff 95 98 03 00 00    	call   QWORD PTR [rbp+0x398]
2000027b5:	85 c0                	test   eax,eax
2000027b7:	0f 84 1f 01 00 00    	je     2000028dc <_ZN4Http12HttpCallbackEP7_streamPS1_+0x5ec>
2000027bd:	8b 44 24 5c          	mov    eax,DWORD PTR [rsp+0x5c]
2000027c1:	3d c8 00 00 00       	cmp    eax,0xc8
2000027c6:	74 0c                	je     2000027d4 <_ZN4Http12HttpCallbackEP7_streamPS1_+0x4e4>
2000027c8:	48 8b 55 08          	mov    rdx,QWORD PTR [rbp+0x8]
2000027cc:	89 42 68             	mov    DWORD PTR [rdx+0x68],eax
2000027cf:	e9 08 01 00 00       	jmp    2000028dc <_ZN4Http12HttpCallbackEP7_streamPS1_+0x5ec>
2000027d4:	45 31 e4             	xor    r12d,r12d
2000027d7:	4c 8d 74 24 58       	lea    r14,[rsp+0x58]
2000027dc:	4c 8d 7c 24 54       	lea    r15,[rsp+0x54]
2000027e1:	31 f6                	xor    esi,esi
2000027e3:	4c 89 f2             	mov    rdx,r14
2000027e6:	48 89 d9             	mov    rcx,rbx
2000027e9:	ff 95 a0 03 00 00    	call   QWORD PTR [rbp+0x3a0]
2000027ef:	85 c0                	test   eax,eax
2000027f1:	0f 84 e5 00 00 00    	je     2000028dc <_ZN4Http12HttpCallbackEP7_streamPS1_+0x5ec>
2000027f7:	8b 44 24 58          	mov    eax,DWORD PTR [rsp+0x58]
2000027fb:	48 8b 4d 00          	mov    rcx,QWORD PTR [rbp+0x0]
2000027ff:	ba 08 00 00 00       	mov    edx,0x8
200002804:	44 8d 40 01          	lea    r8d,[rax+0x1]
200002808:	ff 95 98 01 00 00    	call   QWORD PTR [rbp+0x198]
20000280e:	48 85 f6             	test   rsi,rsi
200002811:	48 89 c7             	mov    rdi,rax
200002814:	8b 44 24 58          	mov    eax,DWORD PTR [rsp+0x58]
200002818:	75 12                	jne    20000282c <_ZN4Http12HttpCallbackEP7_streamPS1_+0x53c>
20000281a:	48 8b 4d 00          	mov    rcx,QWORD PTR [rbp+0x0]
20000281e:	44 8d 40 01          	lea    r8d,[rax+0x1]
200002822:	31 d2                	xor    edx,edx
200002824:	ff 95 98 01 00 00    	call   QWORD PTR [rbp+0x198]
20000282a:	eb 14                	jmp    200002840 <_ZN4Http12HttpCallbackEP7_streamPS1_+0x550>
20000282c:	48 8b 4d 00          	mov    rcx,QWORD PTR [rbp+0x0]
200002830:	45 8d 4c 04 01       	lea    r9d,[r12+rax*1+0x1]
200002835:	49 89 f0             	mov    r8,rsi
200002838:	31 d2                	xor    edx,edx
20000283a:	ff 95 a0 01 00 00    	call   QWORD PTR [rbp+0x1a0]
200002840:	48 89 c6             	mov    rsi,rax
200002843:	8b 44 24 58          	mov    eax,DWORD PTR [rsp+0x58]
200002847:	31 d2                	xor    edx,edx
200002849:	48 89 f9             	mov    rcx,rdi
20000284c:	44 8d 40 01          	lea    r8d,[rax+0x1]
200002850:	e8 f0 f1 ff ff       	call   200001a45 <_Z8x_memsetPviy>
200002855:	44 8b 44 24 58       	mov    r8d,DWORD PTR [rsp+0x58]
20000285a:	4d 89 f9             	mov    r9,r15
20000285d:	48 89 fa             	mov    rdx,rdi
200002860:	48 89 d9             	mov    rcx,rbx
200002863:	ff 95 90 03 00 00    	call   QWORD PTR [rbp+0x390]
200002869:	85 c0                	test   eax,eax
20000286b:	74 6f                	je     2000028dc <_ZN4Http12HttpCallbackEP7_streamPS1_+0x5ec>
20000286d:	44 8b 44 24 54       	mov    r8d,DWORD PTR [rsp+0x54]
200002872:	44 89 e1             	mov    ecx,r12d
200002875:	48 89 fa             	mov    rdx,rdi
200002878:	48 01 f1             	add    rcx,rsi
20000287b:	e8 b0 f1 ff ff       	call   200001a30 <_Z8x_memcpyPvPKvy>
200002880:	44 8b 44 24 54       	mov    r8d,DWORD PTR [rsp+0x54]
200002885:	31 d2                	xor    edx,edx
200002887:	48 89 f9             	mov    rcx,rdi
20000288a:	e8 b6 f1 ff ff       	call   200001a45 <_Z8x_memsetPviy>
20000288f:	31 d2                	xor    edx,edx
200002891:	49 89 f8             	mov    r8,rdi
200002894:	65 48 8b 04 25 30 00 	mov    rax,QWORD PTR gs:0x30
20000289b:	00 00
20000289d:	48 8b 40 60          	mov    rax,QWORD PTR [rax+0x60]
2000028a1:	48 8b 48 30          	mov    rcx,QWORD PTR [rax+0x30]
2000028a5:	ff 95 a8 01 00 00    	call   QWORD PTR [rbp+0x1a8]
2000028ab:	44 03 64 24 54       	add    r12d,DWORD PTR [rsp+0x54]
2000028b0:	83 7c 24 58 00       	cmp    DWORD PTR [rsp+0x58],0x0
2000028b5:	0f 85 28 ff ff ff    	jne    2000027e3 <_ZN4Http12HttpCallbackEP7_streamPS1_+0x4f3>
2000028bb:	48 8b 4d 00          	mov    rcx,QWORD PTR [rbp+0x0]
2000028bf:	41 b8 18 00 00 00    	mov    r8d,0x18
2000028c5:	31 d2                	xor    edx,edx
2000028c7:	ff 95 98 01 00 00    	call   QWORD PTR [rbp+0x198]
2000028cd:	49 89 45 00          	mov    QWORD PTR [r13+0x0],rax
2000028d1:	48 89 30             	mov    QWORD PTR [rax],rsi
2000028d4:	49 8b 45 00          	mov    rax,QWORD PTR [r13+0x0]
2000028d8:	44 89 60 08          	mov    DWORD PTR [rax+0x8],r12d
2000028dc:	48 89 d9             	mov    rcx,rbx
2000028df:	ff 95 a8 03 00 00    	call   QWORD PTR [rbp+0x3a8]
2000028e5:	48 8b 4c 24 48       	mov    rcx,QWORD PTR [rsp+0x48]
2000028ea:	ff 95 a8 03 00 00    	call   QWORD PTR [rbp+0x3a8]
2000028f0:	4c 8b 84 24 90 00 00 	mov    r8,QWORD PTR [rsp+0x90]
2000028f7:	00
2000028f8:	4d 85 c0             	test   r8,r8
2000028fb:	74 0c                	je     200002909 <_ZN4Http12HttpCallbackEP7_streamPS1_+0x619>
2000028fd:	48 8b 4d 00          	mov    rcx,QWORD PTR [rbp+0x0]
200002901:	31 d2                	xor    edx,edx
200002903:	ff 95 a8 01 00 00    	call   QWORD PTR [rbp+0x1a8]
200002909:	4c 8b 84 24 98 00 00 	mov    r8,QWORD PTR [rsp+0x98]
200002910:	00
200002911:	4d 85 c0             	test   r8,r8
200002914:	74 0c                	je     200002922 <_ZN4Http12HttpCallbackEP7_streamPS1_+0x632>
200002916:	48 8b 4d 00          	mov    rcx,QWORD PTR [rbp+0x0]
20000291a:	31 d2                	xor    edx,edx
20000291c:	ff 95 a8 01 00 00    	call   QWORD PTR [rbp+0x1a8]
200002922:	4c 8b 84 24 88 00 00 	mov    r8,QWORD PTR [rsp+0x88]
200002929:	00
20000292a:	4d 85 c0             	test   r8,r8
20000292d:	74 0c                	je     20000293b <_ZN4Http12HttpCallbackEP7_streamPS1_+0x64b>
20000292f:	48 8b 4d 00          	mov    rcx,QWORD PTR [rbp+0x0]
200002933:	31 d2                	xor    edx,edx
200002935:	ff 95 a8 01 00 00    	call   QWORD PTR [rbp+0x1a8]
20000293b:	48 81 c4 c8 00 00 00 	add    rsp,0xc8
200002942:	5b                   	pop    rbx
200002943:	5e                   	pop    rsi
200002944:	5f                   	pop    rdi
200002945:	5d                   	pop    rbp
200002946:	41 5c                	pop    r12
200002948:	41 5d                	pop    r13
20000294a:	41 5e                	pop    r14
20000294c:	41 5f                	pop    r15
20000294e:	c3                   	ret

000000020000294f <_ZN3Smb8PipeReadEP7_streamPv>:
20000294f:	41 54                	push   r12
200002951:	55                   	push   rbp
200002952:	57                   	push   rdi
200002953:	48 89 d7             	mov    rdi,rdx
200002956:	56                   	push   rsi
200002957:	31 f6                	xor    esi,esi
200002959:	53                   	push   rbx
20000295a:	48 89 cb             	mov    rbx,rcx
20000295d:	48 83 ec 40          	sub    rsp,0x40
200002961:	e8 b0 d6 ff ff       	call   200000016 <InstStart>
200002966:	48 8b 15 e3 13 00 00 	mov    rdx,QWORD PTR [rip+0x13e3]        # 200003d50 <.refptr.__InstanceOffset>
20000296d:	45 31 c0             	xor    r8d,r8d
200002970:	48 8d 6c 24 3c       	lea    rbp,[rsp+0x3c]
200002975:	44 89 44 24 3c       	mov    DWORD PTR [rsp+0x3c],r8d
20000297a:	4c 8b 24 10          	mov    r12,QWORD PTR [rax+rdx*1]
20000297e:	8b 43 08             	mov    eax,DWORD PTR [rbx+0x8]
200002981:	41 b8 ff f9 00 00    	mov    r8d,0xf9ff
200002987:	31 c9                	xor    ecx,ecx
200002989:	89 f2                	mov    edx,esi
20000298b:	48 03 13             	add    rdx,QWORD PTR [rbx]
20000298e:	49 89 e9             	mov    r9,rbp
200002991:	48 89 4c 24 20       	mov    QWORD PTR [rsp+0x20],rcx
200002996:	48 89 f9             	mov    rcx,rdi
200002999:	29 f0                	sub    eax,esi
20000299b:	44 39 c0             	cmp    eax,r8d
20000299e:	44 0f 46 c0          	cmovbe r8d,eax
2000029a2:	41 ff 94 24 b0 02 00 	call   QWORD PTR [r12+0x2b0]
2000029a9:	00
2000029aa:	85 c0                	test   eax,eax
2000029ac:	75 0e                	jne    2000029bc <_ZN3Smb8PipeReadEP7_streamPv+0x6d>
2000029ae:	49 8b 54 24 08       	mov    rdx,QWORD PTR [r12+0x8]
2000029b3:	81 7a 68 e8 00 00 00 	cmp    DWORD PTR [rdx+0x68],0xe8
2000029ba:	74 0e                	je     2000029ca <_ZN3Smb8PipeReadEP7_streamPv+0x7b>
2000029bc:	03 74 24 3c          	add    esi,DWORD PTR [rsp+0x3c]
2000029c0:	3b 73 08             	cmp    esi,DWORD PTR [rbx+0x8]
2000029c3:	72 b9                	jb     20000297e <_ZN3Smb8PipeReadEP7_streamPv+0x2f>
2000029c5:	b8 01 00 00 00       	mov    eax,0x1
2000029ca:	48 83 c4 40          	add    rsp,0x40
2000029ce:	5b                   	pop    rbx
2000029cf:	5e                   	pop    rsi
2000029d0:	5f                   	pop    rdi
2000029d1:	5d                   	pop    rbp
2000029d2:	41 5c                	pop    r12
2000029d4:	c3                   	ret

00000002000029d5 <_ZN3Smb9PipeWriteEP7_streamPv>:
2000029d5:	41 54                	push   r12
2000029d7:	55                   	push   rbp
2000029d8:	57                   	push   rdi
2000029d9:	48 89 d7             	mov    rdi,rdx
2000029dc:	56                   	push   rsi
2000029dd:	31 f6                	xor    esi,esi
2000029df:	53                   	push   rbx
2000029e0:	48 89 cb             	mov    rbx,rcx
2000029e3:	48 83 ec 40          	sub    rsp,0x40
2000029e7:	e8 2a d6 ff ff       	call   200000016 <InstStart>
2000029ec:	48 8b 15 5d 13 00 00 	mov    rdx,QWORD PTR [rip+0x135d]        # 200003d50 <.refptr.__InstanceOffset>
2000029f3:	45 31 c0             	xor    r8d,r8d
2000029f6:	48 8d 6c 24 3c       	lea    rbp,[rsp+0x3c]
2000029fb:	44 89 44 24 3c       	mov    DWORD PTR [rsp+0x3c],r8d
200002a00:	4c 8b 24 10          	mov    r12,QWORD PTR [rax+rdx*1]
200002a04:	8b 43 08             	mov    eax,DWORD PTR [rbx+0x8]
200002a07:	41 b8 ff f9 00 00    	mov    r8d,0xf9ff
200002a0d:	31 c9                	xor    ecx,ecx
200002a0f:	89 f2                	mov    edx,esi
200002a11:	48 03 13             	add    rdx,QWORD PTR [rbx]
200002a14:	49 89 e9             	mov    r9,rbp
200002a17:	48 89 4c 24 20       	mov    QWORD PTR [rsp+0x20],rcx
200002a1c:	48 89 f9             	mov    rcx,rdi
200002a1f:	29 f0                	sub    eax,esi
200002a21:	44 39 c0             	cmp    eax,r8d
200002a24:	44 0f 46 c0          	cmovbe r8d,eax
200002a28:	41 ff 94 24 b8 02 00 	call   QWORD PTR [r12+0x2b8]
200002a2f:	00
200002a30:	85 c0                	test   eax,eax
200002a32:	74 0e                	je     200002a42 <_ZN3Smb9PipeWriteEP7_streamPv+0x6d>
200002a34:	03 74 24 3c          	add    esi,DWORD PTR [rsp+0x3c]
200002a38:	3b 73 08             	cmp    esi,DWORD PTR [rbx+0x8]
200002a3b:	72 c7                	jb     200002a04 <_ZN3Smb9PipeWriteEP7_streamPv+0x2f>
200002a3d:	b8 01 00 00 00       	mov    eax,0x1
200002a42:	48 83 c4 40          	add    rsp,0x40
200002a46:	5b                   	pop    rbx
200002a47:	5e                   	pop    rsi
200002a48:	5f                   	pop    rdi
200002a49:	5d                   	pop    rbp
200002a4a:	41 5c                	pop    r12
200002a4c:	c3                   	ret

0000000200002a4d <_ZN3Smb17PeerConnectEgressEP7_streamPS1_>:
200002a4d:	55                   	push   rbp
200002a4e:	48 89 cd             	mov    rbp,rcx
200002a51:	57                   	push   rdi
200002a52:	48 89 d7             	mov    rdi,rdx
200002a55:	56                   	push   rsi
200002a56:	53                   	push   rbx
200002a57:	48 83 ec 48          	sub    rsp,0x48
200002a5b:	e8 b6 d5 ff ff       	call   200000016 <InstStart>
200002a60:	48 8b 15 e9 12 00 00 	mov    rdx,QWORD PTR [rip+0x12e9]        # 200003d50 <.refptr.__InstanceOffset>
200002a67:	45 31 c0             	xor    r8d,r8d
200002a6a:	45 31 c9             	xor    r9d,r9d
200002a6d:	48 8b 34 10          	mov    rsi,QWORD PTR [rax+rdx*1]
200002a71:	31 d2                	xor    edx,edx
200002a73:	48 8b 4e 70          	mov    rcx,QWORD PTR [rsi+0x70]
200002a77:	48 89 54 24 30       	mov    QWORD PTR [rsp+0x30],rdx
200002a7c:	ba 00 00 00 c0       	mov    edx,0xc0000000
200002a81:	44 89 44 24 28       	mov    DWORD PTR [rsp+0x28],r8d
200002a86:	45 31 c0             	xor    r8d,r8d
200002a89:	c7 44 24 20 03 00 00 	mov    DWORD PTR [rsp+0x20],0x3
200002a90:	00
200002a91:	ff 96 c0 02 00 00    	call   QWORD PTR [rsi+0x2c0]
200002a97:	48 85 c0             	test   rax,rax
200002a9a:	74 62                	je     200002afe <_ZN3Smb17PeerConnectEgressEP7_streamPS1_+0xb1>
200002a9c:	48 89 c3             	mov    rbx,rax
200002a9f:	31 c0                	xor    eax,eax
200002aa1:	45 31 c9             	xor    r9d,r9d
200002aa4:	45 31 c0             	xor    r8d,r8d
200002aa7:	48 89 44 24 28       	mov    QWORD PTR [rsp+0x28],rax
200002aac:	48 8b 07             	mov    rax,QWORD PTR [rdi]
200002aaf:	31 d2                	xor    edx,edx
200002ab1:	48 89 d9             	mov    rcx,rbx
200002ab4:	48 83 c0 08          	add    rax,0x8
200002ab8:	48 89 44 24 20       	mov    QWORD PTR [rsp+0x20],rax
200002abd:	ff 96 28 04 00 00    	call   QWORD PTR [rsi+0x428]
200002ac3:	85 c0                	test   eax,eax
200002ac5:	74 24                	je     200002aeb <_ZN3Smb17PeerConnectEgressEP7_streamPS1_+0x9e>
200002ac7:	48 8b 0f             	mov    rcx,QWORD PTR [rdi]
200002aca:	83 79 08 00          	cmp    DWORD PTR [rcx+0x8],0x0
200002ace:	74 0e                	je     200002ade <_ZN3Smb17PeerConnectEgressEP7_streamPS1_+0x91>
200002ad0:	48 89 da             	mov    rdx,rbx
200002ad3:	e8 77 fe ff ff       	call   20000294f <_ZN3Smb8PipeReadEP7_streamPv>
200002ad8:	85 c0                	test   eax,eax
200002ada:	75 0f                	jne    200002aeb <_ZN3Smb17PeerConnectEgressEP7_streamPS1_+0x9e>
200002adc:	eb 20                	jmp    200002afe <_ZN3Smb17PeerConnectEgressEP7_streamPS1_+0xb1>
200002ade:	48 8b 46 08          	mov    rax,QWORD PTR [rsi+0x8]
200002ae2:	c7 40 68 7a 00 00 00 	mov    DWORD PTR [rax+0x68],0x7a
200002ae9:	eb 13                	jmp    200002afe <_ZN3Smb17PeerConnectEgressEP7_streamPS1_+0xb1>
200002aeb:	48 83 c4 48          	add    rsp,0x48
200002aef:	48 89 da             	mov    rdx,rbx
200002af2:	48 89 e9             	mov    rcx,rbp
200002af5:	5b                   	pop    rbx
200002af6:	5e                   	pop    rsi
200002af7:	5f                   	pop    rdi
200002af8:	5d                   	pop    rbp
200002af9:	e9 d7 fe ff ff       	jmp    2000029d5 <_ZN3Smb9PipeWriteEP7_streamPv>
200002afe:	48 83 c4 48          	add    rsp,0x48
200002b02:	5b                   	pop    rbx
200002b03:	5e                   	pop    rsi
200002b04:	5f                   	pop    rdi
200002b05:	5d                   	pop    rbp
200002b06:	c3                   	ret

0000000200002b07 <_ZN3Smb14SmbContextInitEP17SMB_PIPE_SEC_ATTRP20_SECURITY_ATTRIBUTES>:
200002b07:	55                   	push   rbp
200002b08:	48 89 d5             	mov    rbp,rdx
200002b0b:	57                   	push   rdi
200002b0c:	56                   	push   rsi
200002b0d:	48 89 ce             	mov    rsi,rcx
200002b10:	53                   	push   rbx
200002b11:	48 81 ec b8 00 00 00 	sub    rsp,0xb8
200002b18:	e8 f9 d4 ff ff       	call   200000016 <InstStart>
200002b1d:	45 31 c0             	xor    r8d,r8d
200002b20:	b9 0c 00 00 00       	mov    ecx,0xc
200002b25:	45 31 c9             	xor    r9d,r9d
200002b28:	48 8b 15 21 12 00 00 	mov    rdx,QWORD PTR [rip+0x1221]        # 200003d50 <.refptr.__InstanceOffset>
200002b2f:	48 8d bc 24 80 00 00 	lea    rdi,[rsp+0x80]
200002b36:	00
200002b37:	45 31 d2             	xor    r10d,r10d
200002b3a:	44 89 44 24 6c       	mov    DWORD PTR [rsp+0x6c],r8d
200002b3f:	41 b8 20 00 00 00    	mov    r8d,0x20
200002b45:	44 89 4c 24 72       	mov    DWORD PTR [rsp+0x72],r9d
200002b4a:	48 8b 1c 10          	mov    rbx,QWORD PTR [rax+rdx*1]
200002b4e:	31 c0                	xor    eax,eax
200002b50:	31 d2                	xor    edx,edx
200002b52:	4c 89 54 24 78       	mov    QWORD PTR [rsp+0x78],r10
200002b57:	f3 ab                	rep stos DWORD PTR es:[rdi],eax
200002b59:	48 89 f1             	mov    rcx,rsi
200002b5c:	48 8d 7e 08          	lea    rdi,[rsi+0x8]
200002b60:	66 c7 44 24 70 00 01 	mov    WORD PTR [rsp+0x70],0x100
200002b67:	66 c7 44 24 76 00 10 	mov    WORD PTR [rsp+0x76],0x1000
200002b6e:	e8 d2 ee ff ff       	call   200001a45 <_Z8x_memsetPviy>
200002b73:	31 d2                	xor    edx,edx
200002b75:	41 b8 08 00 00 00    	mov    r8d,0x8
200002b7b:	48 89 e9             	mov    rcx,rbp
200002b7e:	e8 c2 ee ff ff       	call   200001a45 <_Z8x_memsetPviy>
200002b83:	45 31 db             	xor    r11d,r11d
200002b86:	45 31 c9             	xor    r9d,r9d
200002b89:	45 31 c0             	xor    r8d,r8d
200002b8c:	48 89 7c 24 50       	mov    QWORD PTR [rsp+0x50],rdi
200002b91:	48 8d 4c 24 6c       	lea    rcx,[rsp+0x6c]
200002b96:	ba 01 00 00 00       	mov    edx,0x1
200002b9b:	44 89 5c 24 48       	mov    DWORD PTR [rsp+0x48],r11d
200002ba0:	44 89 5c 24 40       	mov    DWORD PTR [rsp+0x40],r11d
200002ba5:	44 89 5c 24 38       	mov    DWORD PTR [rsp+0x38],r11d
200002baa:	44 89 5c 24 30       	mov    DWORD PTR [rsp+0x30],r11d
200002baf:	44 89 5c 24 28       	mov    DWORD PTR [rsp+0x28],r11d
200002bb4:	44 89 5c 24 20       	mov    DWORD PTR [rsp+0x20],r11d
200002bb9:	ff 93 50 04 00 00    	call   QWORD PTR [rbx+0x450]
200002bbf:	85 c0                	test   eax,eax
200002bc1:	74 56                	je     200002c19 <_ZN3Smb14SmbContextInitEP17SMB_PIPE_SEC_ATTRP20_SECURITY_ATTRIBUTES+0x112>
200002bc3:	48 b8 ff ff 1f 00 02 	movabs rax,0x2001fffff
200002bca:	00 00 00
200002bcd:	31 c9                	xor    ecx,ecx
200002bcf:	4c 8d 4c 24 78       	lea    r9,[rsp+0x78]
200002bd4:	45 31 c0             	xor    r8d,r8d
200002bd7:	48 89 84 24 80 00 00 	mov    QWORD PTR [rsp+0x80],rax
200002bde:	00
200002bdf:	b8 05 00 00 00       	mov    eax,0x5
200002be4:	48 8d 94 24 80 00 00 	lea    rdx,[rsp+0x80]
200002beb:	00
200002bec:	48 c1 e0 20          	shl    rax,0x20
200002bf0:	89 8c 24 88 00 00 00 	mov    DWORD PTR [rsp+0x88],ecx
200002bf7:	b9 01 00 00 00       	mov    ecx,0x1
200002bfc:	48 89 84 24 9c 00 00 	mov    QWORD PTR [rsp+0x9c],rax
200002c03:	00
200002c04:	48 8b 06             	mov    rax,QWORD PTR [rsi]
200002c07:	48 89 84 24 a8 00 00 	mov    QWORD PTR [rsp+0xa8],rax
200002c0e:	00
200002c0f:	ff 93 48 04 00 00    	call   QWORD PTR [rbx+0x448]
200002c15:	85 c0                	test   eax,eax
200002c17:	75 10                	jne    200002c29 <_ZN3Smb14SmbContextInitEP17SMB_PIPE_SEC_ATTRP20_SECURITY_ATTRIBUTES+0x122>
200002c19:	48 8b 43 08          	mov    rax,QWORD PTR [rbx+0x8]
200002c1d:	c7 40 68 39 05 00 00 	mov    DWORD PTR [rax+0x68],0x539
200002c24:	e9 26 01 00 00       	jmp    200002d4f <_ZN3Smb14SmbContextInitEP17SMB_PIPE_SEC_ATTRP20_SECURITY_ATTRIBUTES+0x248>
200002c29:	31 d2                	xor    edx,edx
200002c2b:	45 31 c9             	xor    r9d,r9d
200002c2e:	48 89 7c 24 50       	mov    QWORD PTR [rsp+0x50],rdi
200002c33:	48 8d 4c 24 72       	lea    rcx,[rsp+0x72]
200002c38:	89 54 24 48          	mov    DWORD PTR [rsp+0x48],edx
200002c3c:	41 b8 00 10 00 00    	mov    r8d,0x1000
200002c42:	89 54 24 40          	mov    DWORD PTR [rsp+0x40],edx
200002c46:	89 54 24 38          	mov    DWORD PTR [rsp+0x38],edx
200002c4a:	89 54 24 30          	mov    DWORD PTR [rsp+0x30],edx
200002c4e:	89 54 24 28          	mov    DWORD PTR [rsp+0x28],edx
200002c52:	89 54 24 20          	mov    DWORD PTR [rsp+0x20],edx
200002c56:	ba 01 00 00 00       	mov    edx,0x1
200002c5b:	ff 93 50 04 00 00    	call   QWORD PTR [rbx+0x450]
200002c61:	85 c0                	test   eax,eax
200002c63:	74 b4                	je     200002c19 <_ZN3Smb14SmbContextInitEP17SMB_PIPE_SEC_ATTRP20_SECURITY_ATTRIBUTES+0x112>
200002c65:	48 8b 0b             	mov    rcx,QWORD PTR [rbx]
200002c68:	41 b8 04 01 00 00    	mov    r8d,0x104
200002c6e:	ba 08 00 00 00       	mov    edx,0x8
200002c73:	ff 93 98 01 00 00    	call   QWORD PTR [rbx+0x198]
200002c79:	48 89 46 10          	mov    QWORD PTR [rsi+0x10],rax
200002c7d:	48 89 c1             	mov    rcx,rax
200002c80:	48 85 c0             	test   rax,rax
200002c83:	75 10                	jne    200002c95 <_ZN3Smb14SmbContextInitEP17SMB_PIPE_SEC_ATTRP20_SECURITY_ATTRIBUTES+0x18e>
200002c85:	48 8b 43 08          	mov    rax,QWORD PTR [rbx+0x8]
200002c89:	c7 40 68 08 00 00 00 	mov    DWORD PTR [rax+0x68],0x8
200002c90:	e9 ba 00 00 00       	jmp    200002d4f <_ZN3Smb14SmbContextInitEP17SMB_PIPE_SEC_ATTRP20_SECURITY_ATTRIBUTES+0x248>
200002c95:	41 b8 04 00 00 00    	mov    r8d,0x4
200002c9b:	ba 04 01 00 00       	mov    edx,0x104
200002ca0:	ff 93 78 04 00 00    	call   QWORD PTR [rbx+0x478]
200002ca6:	85 c0                	test   eax,eax
200002ca8:	74 47                	je     200002cf1 <_ZN3Smb14SmbContextInitEP17SMB_PIPE_SEC_ATTRP20_SECURITY_ATTRIBUTES+0x1ea>
200002caa:	48 8b 46 08          	mov    rax,QWORD PTR [rsi+0x8]
200002cae:	48 8b 4e 10          	mov    rcx,QWORD PTR [rsi+0x10]
200002cb2:	45 31 c9             	xor    r9d,r9d
200002cb5:	ba 04 00 00 00       	mov    edx,0x4
200002cba:	41 b8 04 00 00 00    	mov    r8d,0x4
200002cc0:	48 89 44 24 20       	mov    QWORD PTR [rsp+0x20],rax
200002cc5:	ff 93 58 04 00 00    	call   QWORD PTR [rbx+0x458]
200002ccb:	85 c0                	test   eax,eax
200002ccd:	74 22                	je     200002cf1 <_ZN3Smb14SmbContextInitEP17SMB_PIPE_SEC_ATTRP20_SECURITY_ATTRIBUTES+0x1ea>
200002ccf:	48 8b 0b             	mov    rcx,QWORD PTR [rbx]
200002cd2:	41 b8 28 00 00 00    	mov    r8d,0x28
200002cd8:	ba 08 00 00 00       	mov    edx,0x8
200002cdd:	ff 93 98 01 00 00    	call   QWORD PTR [rbx+0x198]
200002ce3:	48 89 46 18          	mov    QWORD PTR [rsi+0x18],rax
200002ce7:	48 89 c1             	mov    rcx,rax
200002cea:	48 85 c0             	test   rax,rax
200002ced:	75 0f                	jne    200002cfe <_ZN3Smb14SmbContextInitEP17SMB_PIPE_SEC_ATTRP20_SECURITY_ATTRIBUTES+0x1f7>
200002cef:	eb 1c                	jmp    200002d0d <_ZN3Smb14SmbContextInitEP17SMB_PIPE_SEC_ATTRP20_SECURITY_ATTRIBUTES+0x206>
200002cf1:	48 8b 43 08          	mov    rax,QWORD PTR [rbx+0x8]
200002cf5:	c7 40 68 24 03 00 00 	mov    DWORD PTR [rax+0x68],0x324
200002cfc:	eb 51                	jmp    200002d4f <_ZN3Smb14SmbContextInitEP17SMB_PIPE_SEC_ATTRP20_SECURITY_ATTRIBUTES+0x248>
200002cfe:	ba 01 00 00 00       	mov    edx,0x1
200002d03:	ff 93 60 04 00 00    	call   QWORD PTR [rbx+0x460]
200002d09:	85 c0                	test   eax,eax
200002d0b:	75 0d                	jne    200002d1a <_ZN3Smb14SmbContextInitEP17SMB_PIPE_SEC_ATTRP20_SECURITY_ATTRIBUTES+0x213>
200002d0d:	48 8b 43 08          	mov    rax,QWORD PTR [rbx+0x8]
200002d11:	c7 40 68 3a 05 00 00 	mov    DWORD PTR [rax+0x68],0x53a
200002d18:	eb 35                	jmp    200002d4f <_ZN3Smb14SmbContextInitEP17SMB_PIPE_SEC_ATTRP20_SECURITY_ATTRIBUTES+0x248>
200002d1a:	45 31 c9             	xor    r9d,r9d
200002d1d:	48 8b 4e 18          	mov    rcx,QWORD PTR [rsi+0x18]
200002d21:	4c 8b 44 24 78       	mov    r8,QWORD PTR [rsp+0x78]
200002d26:	ba 01 00 00 00       	mov    edx,0x1
200002d2b:	ff 93 68 04 00 00    	call   QWORD PTR [rbx+0x468]
200002d31:	85 c0                	test   eax,eax
200002d33:	74 d8                	je     200002d0d <_ZN3Smb14SmbContextInitEP17SMB_PIPE_SEC_ATTRP20_SECURITY_ATTRIBUTES+0x206>
200002d35:	45 31 c9             	xor    r9d,r9d
200002d38:	48 8b 4e 18          	mov    rcx,QWORD PTR [rsi+0x18]
200002d3c:	4c 8b 46 10          	mov    r8,QWORD PTR [rsi+0x10]
200002d40:	ba 01 00 00 00       	mov    edx,0x1
200002d45:	ff 93 70 04 00 00    	call   QWORD PTR [rbx+0x470]
200002d4b:	85 c0                	test   eax,eax
200002d4d:	74 be                	je     200002d0d <_ZN3Smb14SmbContextInitEP17SMB_PIPE_SEC_ATTRP20_SECURITY_ATTRIBUTES+0x206>
200002d4f:	48 8b 43 08          	mov    rax,QWORD PTR [rbx+0x8]
200002d53:	83 78 68 00          	cmp    DWORD PTR [rax+0x68],0x0
200002d57:	75 14                	jne    200002d6d <_ZN3Smb14SmbContextInitEP17SMB_PIPE_SEC_ATTRP20_SECURITY_ATTRIBUTES+0x266>
200002d59:	48 8b 46 18          	mov    rax,QWORD PTR [rsi+0x18]
200002d5d:	c7 45 00 18 00 00 00 	mov    DWORD PTR [rbp+0x0],0x18
200002d64:	48 89 45 08          	mov    QWORD PTR [rbp+0x8],rax
200002d68:	31 c0                	xor    eax,eax
200002d6a:	89 45 10             	mov    DWORD PTR [rbp+0x10],eax
200002d6d:	48 81 c4 b8 00 00 00 	add    rsp,0xb8
200002d74:	5b                   	pop    rbx
200002d75:	5e                   	pop    rsi
200002d76:	5f                   	pop    rdi
200002d77:	5d                   	pop    rbp
200002d78:	c3                   	ret

0000000200002d79 <_ZN3Smb17SmbContextDestroyEP17SMB_PIPE_SEC_ATTR>:
200002d79:	56                   	push   rsi
200002d7a:	53                   	push   rbx
200002d7b:	48 89 cb             	mov    rbx,rcx
200002d7e:	48 83 ec 28          	sub    rsp,0x28
200002d82:	e8 8f d2 ff ff       	call   200000016 <InstStart>
200002d87:	48 8b 15 c2 0f 00 00 	mov    rdx,QWORD PTR [rip+0xfc2]        # 200003d50 <.refptr.__InstanceOffset>
200002d8e:	48 8b 0b             	mov    rcx,QWORD PTR [rbx]
200002d91:	48 8b 34 10          	mov    rsi,QWORD PTR [rax+rdx*1]
200002d95:	48 85 c9             	test   rcx,rcx
200002d98:	74 0b                	je     200002da5 <_ZN3Smb17SmbContextDestroyEP17SMB_PIPE_SEC_ATTR+0x2c>
200002d9a:	ff 96 80 04 00 00    	call   QWORD PTR [rsi+0x480]
200002da0:	31 d2                	xor    edx,edx
200002da2:	48 89 13             	mov    QWORD PTR [rbx],rdx
200002da5:	48 8b 4b 08          	mov    rcx,QWORD PTR [rbx+0x8]
200002da9:	48 85 c9             	test   rcx,rcx
200002dac:	74 0c                	je     200002dba <_ZN3Smb17SmbContextDestroyEP17SMB_PIPE_SEC_ATTR+0x41>
200002dae:	ff 96 80 04 00 00    	call   QWORD PTR [rsi+0x480]
200002db4:	31 c0                	xor    eax,eax
200002db6:	48 89 43 08          	mov    QWORD PTR [rbx+0x8],rax
200002dba:	4c 8b 43 10          	mov    r8,QWORD PTR [rbx+0x10]
200002dbe:	4d 85 c0             	test   r8,r8
200002dc1:	74 0b                	je     200002dce <_ZN3Smb17SmbContextDestroyEP17SMB_PIPE_SEC_ATTR+0x55>
200002dc3:	48 8b 0e             	mov    rcx,QWORD PTR [rsi]
200002dc6:	31 d2                	xor    edx,edx
200002dc8:	ff 96 a8 01 00 00    	call   QWORD PTR [rsi+0x1a8]
200002dce:	4c 8b 43 18          	mov    r8,QWORD PTR [rbx+0x18]
200002dd2:	4d 85 c0             	test   r8,r8
200002dd5:	74 14                	je     200002deb <_ZN3Smb17SmbContextDestroyEP17SMB_PIPE_SEC_ATTR+0x72>
200002dd7:	48 8b 86 a8 01 00 00 	mov    rax,QWORD PTR [rsi+0x1a8]
200002dde:	48 8b 0e             	mov    rcx,QWORD PTR [rsi]
200002de1:	48 83 c4 28          	add    rsp,0x28
200002de5:	31 d2                	xor    edx,edx
200002de7:	5b                   	pop    rbx
200002de8:	5e                   	pop    rsi
200002de9:	ff e0                	jmp    rax
200002deb:	48 83 c4 28          	add    rsp,0x28
200002def:	5b                   	pop    rbx
200002df0:	5e                   	pop    rsi
200002df1:	c3                   	ret

0000000200002df2 <_ZN3Smb18PeerConnectIngressEP7_streamPS1_>:
200002df2:	41 55                	push   r13
200002df4:	41 54                	push   r12
200002df6:	49 89 d4             	mov    r12,rdx
200002df9:	55                   	push   rbp
200002dfa:	48 89 cd             	mov    rbp,rcx
200002dfd:	57                   	push   rdi
200002dfe:	56                   	push   rsi
200002dff:	53                   	push   rbx
200002e00:	48 81 ec 88 00 00 00 	sub    rsp,0x88
200002e07:	e8 0a d2 ff ff       	call   200000016 <InstStart>
200002e0c:	48 8b 15 3d 0f 00 00 	mov    rdx,QWORD PTR [rip+0xf3d]        # 200003d50 <.refptr.__InstanceOffset>
200002e13:	48 8d 7c 24 60       	lea    rdi,[rsp+0x60]
200002e18:	45 31 c9             	xor    r9d,r9d
200002e1b:	b9 08 00 00 00       	mov    ecx,0x8
200002e20:	44 89 4c 24 40       	mov    DWORD PTR [rsp+0x40],r9d
200002e25:	48 8b 1c 10          	mov    rbx,QWORD PTR [rax+rdx*1]
200002e29:	31 c0                	xor    eax,eax
200002e2b:	44 89 4c 24 44       	mov    DWORD PTR [rsp+0x44],r9d
200002e30:	f3 ab                	rep stos DWORD PTR es:[rdi],eax
200002e32:	48 8d 7c 24 48       	lea    rdi,[rsp+0x48]
200002e37:	b9 06 00 00 00       	mov    ecx,0x6
200002e3c:	f3 ab                	rep stos DWORD PTR es:[rdi],eax
200002e3e:	48 8b 73 68          	mov    rsi,QWORD PTR [rbx+0x68]
200002e42:	48 85 f6             	test   rsi,rsi
200002e45:	0f 85 80 00 00 00    	jne    200002ecb <_ZN3Smb18PeerConnectIngressEP7_streamPS1_+0xd9>
200002e4b:	4c 8d 6c 24 48       	lea    r13,[rsp+0x48]
200002e50:	48 8d 7c 24 60       	lea    rdi,[rsp+0x60]
200002e55:	4c 89 ea             	mov    rdx,r13
200002e58:	48 89 f9             	mov    rcx,rdi
200002e5b:	e8 a7 fc ff ff       	call   200002b07 <_ZN3Smb14SmbContextInitEP17SMB_PIPE_SEC_ATTRP20_SECURITY_ATTRIBUTES>
200002e60:	45 31 c0             	xor    r8d,r8d
200002e63:	48 8b 4b 68          	mov    rcx,QWORD PTR [rbx+0x68]
200002e67:	41 b9 ff 00 00 00    	mov    r9d,0xff
200002e6d:	44 89 44 24 30       	mov    DWORD PTR [rsp+0x30],r8d
200002e72:	ba 03 00 00 00       	mov    edx,0x3
200002e77:	41 b8 06 00 00 00    	mov    r8d,0x6
200002e7d:	4c 89 6c 24 38       	mov    QWORD PTR [rsp+0x38],r13
200002e82:	c7 44 24 28 ff f9 00 	mov    DWORD PTR [rsp+0x28],0xf9ff
200002e89:	00
200002e8a:	c7 44 24 20 ff f9 00 	mov    DWORD PTR [rsp+0x20],0xf9ff
200002e91:	00
200002e92:	ff 93 f8 03 00 00    	call   QWORD PTR [rbx+0x3f8]
200002e98:	48 89 c6             	mov    rsi,rax
200002e9b:	48 85 c0             	test   rax,rax
200002e9e:	0f 84 02 01 00 00    	je     200002fa6 <_ZN3Smb18PeerConnectIngressEP7_streamPS1_+0x1b4>
200002ea4:	48 89 f9             	mov    rcx,rdi
200002ea7:	e8 cd fe ff ff       	call   200002d79 <_ZN3Smb17SmbContextDestroyEP17SMB_PIPE_SEC_ATTR>
200002eac:	31 d2                	xor    edx,edx
200002eae:	48 89 f1             	mov    rcx,rsi
200002eb1:	ff 93 10 04 00 00    	call   QWORD PTR [rbx+0x410]
200002eb7:	85 c0                	test   eax,eax
200002eb9:	75 10                	jne    200002ecb <_ZN3Smb18PeerConnectIngressEP7_streamPS1_+0xd9>
200002ebb:	48 8b 43 08          	mov    rax,QWORD PTR [rbx+0x8]
200002ebf:	c7 40 68 6d 00 00 00 	mov    DWORD PTR [rax+0x68],0x6d
200002ec6:	e9 db 00 00 00       	jmp    200002fa6 <_ZN3Smb18PeerConnectIngressEP7_streamPS1_+0x1b4>
200002ecb:	31 d2                	xor    edx,edx
200002ecd:	48 8d 7c 24 40       	lea    rdi,[rsp+0x40]
200002ed2:	45 31 c9             	xor    r9d,r9d
200002ed5:	45 31 c0             	xor    r8d,r8d
200002ed8:	48 89 54 24 28       	mov    QWORD PTR [rsp+0x28],rdx
200002edd:	48 89 f1             	mov    rcx,rsi
200002ee0:	31 d2                	xor    edx,edx
200002ee2:	48 89 7c 24 20       	mov    QWORD PTR [rsp+0x20],rdi
200002ee7:	ff 93 28 04 00 00    	call   QWORD PTR [rbx+0x428]
200002eed:	85 c0                	test   eax,eax
200002eef:	0f 84 b1 00 00 00    	je     200002fa6 <_ZN3Smb18PeerConnectIngressEP7_streamPS1_+0x1b4>
200002ef5:	44 8b 6c 24 40       	mov    r13d,DWORD PTR [rsp+0x40]
200002efa:	41 83 fd 08          	cmp    r13d,0x8
200002efe:	76 7f                	jbe    200002f7f <_ZN3Smb18PeerConnectIngressEP7_streamPS1_+0x18d>
200002f00:	31 c0                	xor    eax,eax
200002f02:	48 8d 54 24 44       	lea    rdx,[rsp+0x44]
200002f07:	49 89 f9             	mov    r9,rdi
200002f0a:	41 b8 04 00 00 00    	mov    r8d,0x4
200002f10:	48 89 44 24 20       	mov    QWORD PTR [rsp+0x20],rax
200002f15:	48 89 f1             	mov    rcx,rsi
200002f18:	ff 93 b0 02 00 00    	call   QWORD PTR [rbx+0x2b0]
200002f1e:	85 c0                	test   eax,eax
200002f20:	0f 84 80 00 00 00    	je     200002fa6 <_ZN3Smb18PeerConnectIngressEP7_streamPS1_+0x1b4>
200002f26:	8b 44 24 44          	mov    eax,DWORD PTR [rsp+0x44]
200002f2a:	39 83 d0 00 00 00    	cmp    DWORD PTR [rbx+0xd0],eax
200002f30:	74 0d                	je     200002f3f <_ZN3Smb18PeerConnectIngressEP7_streamPS1_+0x14d>
200002f32:	48 8b 43 08          	mov    rax,QWORD PTR [rbx+0x8]
200002f36:	c7 40 68 15 00 00 00 	mov    DWORD PTR [rax+0x68],0x15
200002f3d:	eb 67                	jmp    200002fa6 <_ZN3Smb18PeerConnectIngressEP7_streamPS1_+0x1b4>
200002f3f:	31 d2                	xor    edx,edx
200002f41:	48 8b 0b             	mov    rcx,QWORD PTR [rbx]
200002f44:	41 b8 18 00 00 00    	mov    r8d,0x18
200002f4a:	ff 93 98 01 00 00    	call   QWORD PTR [rbx+0x198]
200002f50:	31 d2                	xor    edx,edx
200002f52:	45 89 e8             	mov    r8d,r13d
200002f55:	49 89 04 24          	mov    QWORD PTR [r12],rax
200002f59:	48 89 c7             	mov    rdi,rax
200002f5c:	48 8b 0b             	mov    rcx,QWORD PTR [rbx]
200002f5f:	ff 93 98 01 00 00    	call   QWORD PTR [rbx+0x198]
200002f65:	48 89 f2             	mov    rdx,rsi
200002f68:	48 89 07             	mov    QWORD PTR [rdi],rax
200002f6b:	49 8b 0c 24          	mov    rcx,QWORD PTR [r12]
200002f6f:	44 89 69 08          	mov    DWORD PTR [rcx+0x8],r13d
200002f73:	e8 d7 f9 ff ff       	call   20000294f <_ZN3Smb8PipeReadEP7_streamPv>
200002f78:	48 85 ed             	test   rbp,rbp
200002f7b:	75 0f                	jne    200002f8c <_ZN3Smb18PeerConnectIngressEP7_streamPS1_+0x19a>
200002f7d:	eb 27                	jmp    200002fa6 <_ZN3Smb18PeerConnectIngressEP7_streamPS1_+0x1b4>
200002f7f:	48 8b 43 08          	mov    rax,QWORD PTR [rbx+0x8]
200002f83:	c7 40 68 7a 00 00 00 	mov    DWORD PTR [rax+0x68],0x7a
200002f8a:	eb 1a                	jmp    200002fa6 <_ZN3Smb18PeerConnectIngressEP7_streamPS1_+0x1b4>
200002f8c:	48 89 f2             	mov    rdx,rsi
200002f8f:	48 89 e9             	mov    rcx,rbp
200002f92:	e8 3e fa ff ff       	call   2000029d5 <_ZN3Smb9PipeWriteEP7_streamPv>
200002f97:	85 c0                	test   eax,eax
200002f99:	75 0b                	jne    200002fa6 <_ZN3Smb18PeerConnectIngressEP7_streamPS1_+0x1b4>
200002f9b:	48 8b 43 08          	mov    rax,QWORD PTR [rbx+0x8]
200002f9f:	c7 40 68 1d 00 00 00 	mov    DWORD PTR [rax+0x68],0x1d
200002fa6:	48 81 c4 88 00 00 00 	add    rsp,0x88
200002fad:	5b                   	pop    rbx
200002fae:	5e                   	pop    rsi
200002faf:	5f                   	pop    rdi
200002fb0:	5d                   	pop    rbp
200002fb1:	41 5c                	pop    r12
200002fb3:	41 5d                	pop    r13
200002fb5:	c3                   	ret
200002fb6:	90                   	nop
200002fb7:	90                   	nop
200002fb8:	90                   	nop
200002fb9:	90                   	nop
200002fba:	90                   	nop
200002fbb:	90                   	nop
200002fbc:	90                   	nop
200002fbd:	90                   	nop
200002fbe:	90                   	nop
200002fbf:	90                   	nop

0000000200002fc0 <_Z9CheckTimev>:
200002fc0:	53                   	push   rbx
200002fc1:	48 83 ec 20          	sub    rsp,0x20
200002fc5:	e8 4c d0 ff ff       	call   200000016 <InstStart>
200002fca:	48 8b 15 7f 0d 00 00 	mov    rdx,QWORD PTR [rip+0xd7f]        # 200003d50 <.refptr.__InstanceOffset>
200002fd1:	48 8b 1c 10          	mov    rbx,QWORD PTR [rax+rdx*1]
200002fd5:	48 83 bb a0 00 00 00 	cmp    QWORD PTR [rbx+0xa0],0x0
200002fdc:	00
200002fdd:	74 15                	je     200002ff4 <_Z9CheckTimev+0x34>
200002fdf:	e8 5c 13 00 00       	call   200004340 <_ZN5Utils10GetTimeNowEv>
200002fe4:	48 3b 83 a0 00 00 00 	cmp    rax,QWORD PTR [rbx+0xa0]
200002feb:	72 07                	jb     200002ff4 <_Z9CheckTimev+0x34>
200002fed:	31 c9                	xor    ecx,ecx
200002fef:	e8 bc d8 ff ff       	call   2000008b0 <_ZN8Commands8ShutdownEP6PARSER>
200002ff4:	83 bb 98 00 00 00 00 	cmp    DWORD PTR [rbx+0x98],0x0
200002ffb:	b8 01 00 00 00       	mov    eax,0x1
200003000:	74 0d                	je     20000300f <_Z9CheckTimev+0x4f>
200003002:	e8 69 13 00 00       	call   200004370 <_ZN5Utils14InWorkingHoursEv>
200003007:	85 c0                	test   eax,eax
200003009:	0f 95 c0             	setne  al
20000300c:	0f b6 c0             	movzx  eax,al
20000300f:	48 83 c4 20          	add    rsp,0x20
200003013:	5b                   	pop    rbx
200003014:	c3                   	ret

0000000200003015 <_Z15SeCheckDebuggerv>:
200003015:	57                   	push   rdi
200003016:	56                   	push   rsi
200003017:	53                   	push   rbx
200003018:	48 83 ec 30          	sub    rsp,0x30
20000301c:	e8 f5 cf ff ff       	call   200000016 <InstStart>
200003021:	48 8b 15 28 0d 00 00 	mov    rdx,QWORD PTR [rip+0xd28]        # 200003d50 <.refptr.__InstanceOffset>
200003028:	48 83 c9 ff          	or     rcx,0xffffffffffffffff
20000302c:	65 48 8b 3c 25 60 00 	mov    rdi,QWORD PTR gs:0x60
200003033:	00 00
200003035:	48 8b 1c 10          	mov    rbx,QWORD PTR [rax+rdx*1]
200003039:	31 c0                	xor    eax,eax
20000303b:	48 8d 54 24 2c       	lea    rdx,[rsp+0x2c]
200003040:	89 44 24 2c          	mov    DWORD PTR [rsp+0x2c],eax
200003044:	8b b3 c0 00 00 00    	mov    esi,DWORD PTR [rbx+0xc0]
20000304a:	ff 93 48 02 00 00    	call   QWORD PTR [rbx+0x248]
200003050:	48 8b 4f 30          	mov    rcx,QWORD PTR [rdi+0x30]
200003054:	4c 8b 43 08          	mov    r8,QWORD PTR [rbx+0x8]
200003058:	83 fe 03             	cmp    esi,0x3
20000305b:	19 d2                	sbb    edx,edx
20000305d:	83 e2 a4             	and    edx,0xffffffa4
200003060:	89 d0                	mov    eax,edx
200003062:	44 8d 4a 70          	lea    r9d,[rdx+0x70]
200003066:	ba 24 02 00 00       	mov    edx,0x224
20000306b:	83 c0 74             	add    eax,0x74
20000306e:	42 f7 04 09 fd ff ff 	test   DWORD PTR [rcx+r9*1],0xfffffffd
200003075:	ff
200003076:	75 0c                	jne    200003084 <_Z15SeCheckDebuggerv+0x6f>
200003078:	8b 14 01             	mov    edx,DWORD PTR [rcx+rax*1]
20000307b:	85 d2                	test   edx,edx
20000307d:	74 05                	je     200003084 <_Z15SeCheckDebuggerv+0x6f>
20000307f:	ba 24 02 00 00       	mov    edx,0x224
200003084:	41 89 50 68          	mov    DWORD PTR [r8+0x68],edx
200003088:	48 83 c4 30          	add    rsp,0x30
20000308c:	5b                   	pop    rbx
20000308d:	5e                   	pop    rsi
20000308e:	5f                   	pop    rdi
20000308f:	c3                   	ret

0000000200003090 <_Z14SeCheckSandboxv>:
200003090:	57                   	push   rdi
200003091:	53                   	push   rbx
200003092:	48 83 ec 68          	sub    rsp,0x68
200003096:	e8 7b cf ff ff       	call   200000016 <InstStart>
20000309b:	48 8d 7c 24 24       	lea    rdi,[rsp+0x24]
2000030a0:	b9 0f 00 00 00       	mov    ecx,0xf
2000030a5:	48 8b 15 a4 0c 00 00 	mov    rdx,QWORD PTR [rip+0xca4]        # 200003d50 <.refptr.__InstanceOffset>
2000030ac:	48 8b 1c 10          	mov    rbx,QWORD PTR [rax+rdx*1]
2000030b0:	31 c0                	xor    eax,eax
2000030b2:	c7 44 24 20 40 00 00 	mov    DWORD PTR [rsp+0x20],0x40
2000030b9:	00
2000030ba:	f3 ab                	rep stos DWORD PTR es:[rdi],eax
2000030bc:	48 8d 4c 24 20       	lea    rcx,[rsp+0x20]
2000030c1:	ff 93 90 02 00 00    	call   QWORD PTR [rbx+0x290]
2000030c7:	48 83 7c 24 30 04    	cmp    QWORD PTR [rsp+0x30],0x4
2000030cd:	48 8b 43 08          	mov    rax,QWORD PTR [rbx+0x8]
2000030d1:	77 09                	ja     2000030dc <_Z14SeCheckSandboxv+0x4c>
2000030d3:	c7 40 68 08 00 00 00 	mov    DWORD PTR [rax+0x68],0x8
2000030da:	eb 05                	jmp    2000030e1 <_Z14SeCheckSandboxv+0x51>
2000030dc:	31 d2                	xor    edx,edx
2000030de:	89 50 68             	mov    DWORD PTR [rax+0x68],edx
2000030e1:	48 83 c4 68          	add    rsp,0x68
2000030e5:	5b                   	pop    rbx
2000030e6:	5f                   	pop    rdi
2000030e7:	c3                   	ret

00000002000030e8 <_Z18SeCheckEnvironmentv>:
2000030e8:	41 54                	push   r12
2000030ea:	55                   	push   rbp
2000030eb:	57                   	push   rdi
2000030ec:	56                   	push   rsi
2000030ed:	53                   	push   rbx
2000030ee:	48 83 ec 30          	sub    rsp,0x30
2000030f2:	e8 1f cf ff ff       	call   200000016 <InstStart>
2000030f7:	48 8b 15 52 0c 00 00 	mov    rdx,QWORD PTR [rip+0xc52]        # 200003d50 <.refptr.__InstanceOffset>
2000030fe:	b9 01 00 00 00       	mov    ecx,0x1
200003103:	48 8b 1c 10          	mov    rbx,QWORD PTR [rax+rdx*1]
200003107:	e8 d2 0a 00 00       	call   200003bde <_ZN6Stream23CreateStreamWithHeadersEm>
20000310c:	45 31 c0             	xor    r8d,r8d
20000310f:	44 89 44 24 2c       	mov    DWORD PTR [rsp+0x2c],r8d
200003114:	48 85 c0             	test   rax,rax
200003117:	75 10                	jne    200003129 <_Z18SeCheckEnvironmentv+0x41>
200003119:	48 8b 43 08          	mov    rax,QWORD PTR [rbx+0x8]
20000311d:	c7 40 68 e8 00 00 00 	mov    DWORD PTR [rax+0x68],0xe8
200003124:	e9 b4 02 00 00       	jmp    2000033dd <_Z18SeCheckEnvironmentv+0x2f5>
200003129:	48 8d 7c 24 2c       	lea    rdi,[rsp+0x2c]
20000312e:	31 d2                	xor    edx,edx
200003130:	31 c9                	xor    ecx,ecx
200003132:	48 89 c6             	mov    rsi,rax
200003135:	49 89 f8             	mov    r8,rdi
200003138:	ff 93 98 02 00 00    	call   QWORD PTR [rbx+0x298]
20000313e:	85 c0                	test   eax,eax
200003140:	0f 85 a4 00 00 00    	jne    2000031ea <_Z18SeCheckEnvironmentv+0x102>
200003146:	44 8b 44 24 2c       	mov    r8d,DWORD PTR [rsp+0x2c]
20000314b:	48 8b 0b             	mov    rcx,QWORD PTR [rbx]
20000314e:	ba 08 00 00 00       	mov    edx,0x8
200003153:	ff 93 98 01 00 00    	call   QWORD PTR [rbx+0x198]
200003159:	31 c9                	xor    ecx,ecx
20000315b:	49 89 f8             	mov    r8,rdi
20000315e:	48 89 c5             	mov    rbp,rax
200003161:	48 89 c2             	mov    rdx,rax
200003164:	ff 93 98 02 00 00    	call   QWORD PTR [rbx+0x298]
20000316a:	85 c0                	test   eax,eax
20000316c:	74 47                	je     2000031b5 <_Z18SeCheckEnvironmentv+0xcd>
20000316e:	48 8b 8b 88 00 00 00 	mov    rcx,QWORD PTR [rbx+0x88]
200003175:	e8 56 e9 ff ff       	call   200001ad0 <_Z8x_strlenPKc>
20000317a:	48 8b 8b 88 00 00 00 	mov    rcx,QWORD PTR [rbx+0x88]
200003181:	48 89 c2             	mov    rdx,rax
200003184:	e8 67 eb ff ff       	call   200001cf0 <_Z18GetHashFromStringAPcy>
200003189:	48 89 e9             	mov    rcx,rbp
20000318c:	41 89 c4             	mov    r12d,eax
20000318f:	e8 3c e9 ff ff       	call   200001ad0 <_Z8x_strlenPKc>
200003194:	48 89 e9             	mov    rcx,rbp
200003197:	48 89 c2             	mov    rdx,rax
20000319a:	e8 51 eb ff ff       	call   200001cf0 <_Z18GetHashFromStringAPcy>
20000319f:	41 39 c4             	cmp    r12d,eax
2000031a2:	0f 85 d1 00 00 00    	jne    200003279 <_Z18SeCheckEnvironmentv+0x191>
2000031a8:	48 89 ea             	mov    rdx,rbp
2000031ab:	48 89 f1             	mov    rcx,rsi
2000031ae:	e8 49 0b 00 00       	call   200003cfc <_ZN6Stream10PackStringEP7_streamPc>
2000031b3:	eb 0a                	jmp    2000031bf <_Z18SeCheckEnvironmentv+0xd7>
2000031b5:	31 d2                	xor    edx,edx
2000031b7:	48 89 f1             	mov    rcx,rsi
2000031ba:	e8 cb 09 00 00       	call   200003b8a <_ZN6Stream9PackDwordEP7_streamm>
2000031bf:	44 8b 44 24 2c       	mov    r8d,DWORD PTR [rsp+0x2c]
2000031c4:	31 d2                	xor    edx,edx
2000031c6:	48 89 e9             	mov    rcx,rbp
2000031c9:	e8 77 e8 ff ff       	call   200001a45 <_Z8x_memsetPviy>
2000031ce:	49 89 e8             	mov    r8,rbp
2000031d1:	31 d2                	xor    edx,edx
2000031d3:	65 48 8b 04 25 30 00 	mov    rax,QWORD PTR gs:0x30
2000031da:	00 00
2000031dc:	48 8b 40 60          	mov    rax,QWORD PTR [rax+0x60]
2000031e0:	48 8b 48 30          	mov    rcx,QWORD PTR [rax+0x30]
2000031e4:	ff 93 a8 01 00 00    	call   QWORD PTR [rbx+0x1a8]
2000031ea:	48 8b 83 80 00 00 00 	mov    rax,QWORD PTR [rbx+0x80]
2000031f1:	31 c9                	xor    ecx,ecx
2000031f3:	89 4c 24 2c          	mov    DWORD PTR [rsp+0x2c],ecx
2000031f7:	80 38 00             	cmp    BYTE PTR [rax],0x0
2000031fa:	0f 84 cd 00 00 00    	je     2000032cd <_Z18SeCheckEnvironmentv+0x1e5>
200003200:	31 d2                	xor    edx,edx
200003202:	49 89 f8             	mov    r8,rdi
200003205:	b9 02 00 00 00       	mov    ecx,0x2
20000320a:	ff 93 98 02 00 00    	call   QWORD PTR [rbx+0x298]
200003210:	85 c0                	test   eax,eax
200003212:	0f 85 bf 00 00 00    	jne    2000032d7 <_Z18SeCheckEnvironmentv+0x1ef>
200003218:	44 8b 44 24 2c       	mov    r8d,DWORD PTR [rsp+0x2c]
20000321d:	48 8b 0b             	mov    rcx,QWORD PTR [rbx]
200003220:	ba 08 00 00 00       	mov    edx,0x8
200003225:	ff 93 98 01 00 00    	call   QWORD PTR [rbx+0x198]
20000322b:	49 89 f8             	mov    r8,rdi
20000322e:	b9 02 00 00 00       	mov    ecx,0x2
200003233:	48 89 c5             	mov    rbp,rax
200003236:	48 89 c2             	mov    rdx,rax
200003239:	ff 93 98 02 00 00    	call   QWORD PTR [rbx+0x298]
20000323f:	85 c0                	test   eax,eax
200003241:	74 53                	je     200003296 <_Z18SeCheckEnvironmentv+0x1ae>
200003243:	48 8b 8b 80 00 00 00 	mov    rcx,QWORD PTR [rbx+0x80]
20000324a:	e8 81 e8 ff ff       	call   200001ad0 <_Z8x_strlenPKc>
20000324f:	48 8b 8b 80 00 00 00 	mov    rcx,QWORD PTR [rbx+0x80]
200003256:	48 89 c2             	mov    rdx,rax
200003259:	e8 92 ea ff ff       	call   200001cf0 <_Z18GetHashFromStringAPcy>
20000325e:	48 89 e9             	mov    rcx,rbp
200003261:	41 89 c4             	mov    r12d,eax
200003264:	e8 67 e8 ff ff       	call   200001ad0 <_Z8x_strlenPKc>
200003269:	48 89 e9             	mov    rcx,rbp
20000326c:	48 89 c2             	mov    rdx,rax
20000326f:	e8 7c ea ff ff       	call   200001cf0 <_Z18GetHashFromStringAPcy>
200003274:	41 39 c4             	cmp    r12d,eax
200003277:	74 10                	je     200003289 <_Z18SeCheckEnvironmentv+0x1a1>
200003279:	48 8b 43 08          	mov    rax,QWORD PTR [rbx+0x8]
20000327d:	c7 40 68 0a 00 00 00 	mov    DWORD PTR [rax+0x68],0xa
200003284:	e9 54 01 00 00       	jmp    2000033dd <_Z18SeCheckEnvironmentv+0x2f5>
200003289:	48 89 ea             	mov    rdx,rbp
20000328c:	48 89 f1             	mov    rcx,rsi
20000328f:	e8 68 0a 00 00       	call   200003cfc <_ZN6Stream10PackStringEP7_streamPc>
200003294:	eb 0a                	jmp    2000032a0 <_Z18SeCheckEnvironmentv+0x1b8>
200003296:	31 d2                	xor    edx,edx
200003298:	48 89 f1             	mov    rcx,rsi
20000329b:	e8 ea 08 00 00       	call   200003b8a <_ZN6Stream9PackDwordEP7_streamm>
2000032a0:	44 8b 44 24 2c       	mov    r8d,DWORD PTR [rsp+0x2c]
2000032a5:	31 d2                	xor    edx,edx
2000032a7:	48 89 e9             	mov    rcx,rbp
2000032aa:	e8 96 e7 ff ff       	call   200001a45 <_Z8x_memsetPviy>
2000032af:	49 89 e8             	mov    r8,rbp
2000032b2:	31 d2                	xor    edx,edx
2000032b4:	65 48 8b 04 25 30 00 	mov    rax,QWORD PTR gs:0x30
2000032bb:	00 00
2000032bd:	48 8b 40 60          	mov    rax,QWORD PTR [rax+0x60]
2000032c1:	48 8b 48 30          	mov    rcx,QWORD PTR [rax+0x30]
2000032c5:	ff 93 a8 01 00 00    	call   QWORD PTR [rbx+0x1a8]
2000032cb:	eb 0a                	jmp    2000032d7 <_Z18SeCheckEnvironmentv+0x1ef>
2000032cd:	31 d2                	xor    edx,edx
2000032cf:	48 89 f1             	mov    rcx,rsi
2000032d2:	e8 b3 08 00 00       	call   200003b8a <_ZN6Stream9PackDwordEP7_streamm>
2000032d7:	31 d2                	xor    edx,edx
2000032d9:	31 c9                	xor    ecx,ecx
2000032db:	89 54 24 2c          	mov    DWORD PTR [rsp+0x2c],edx
2000032df:	48 89 fa             	mov    rdx,rdi
2000032e2:	ff 93 30 04 00 00    	call   QWORD PTR [rbx+0x430]
2000032e8:	85 c0                	test   eax,eax
2000032ea:	75 68                	jne    200003354 <_Z18SeCheckEnvironmentv+0x26c>
2000032ec:	48 8b 0b             	mov    rcx,QWORD PTR [rbx]
2000032ef:	ba 08 00 00 00       	mov    edx,0x8
2000032f4:	44 8b 44 24 2c       	mov    r8d,DWORD PTR [rsp+0x2c]
2000032f9:	ff 93 98 01 00 00    	call   QWORD PTR [rbx+0x198]
2000032ff:	48 89 fa             	mov    rdx,rdi
200003302:	48 89 c5             	mov    rbp,rax
200003305:	48 89 c1             	mov    rcx,rax
200003308:	ff 93 30 04 00 00    	call   QWORD PTR [rbx+0x430]
20000330e:	85 c0                	test   eax,eax
200003310:	74 0d                	je     20000331f <_Z18SeCheckEnvironmentv+0x237>
200003312:	48 89 ea             	mov    rdx,rbp
200003315:	48 89 f1             	mov    rcx,rsi
200003318:	e8 df 09 00 00       	call   200003cfc <_ZN6Stream10PackStringEP7_streamPc>
20000331d:	eb 0a                	jmp    200003329 <_Z18SeCheckEnvironmentv+0x241>
20000331f:	31 d2                	xor    edx,edx
200003321:	48 89 f1             	mov    rcx,rsi
200003324:	e8 61 08 00 00       	call   200003b8a <_ZN6Stream9PackDwordEP7_streamm>
200003329:	44 8b 44 24 2c       	mov    r8d,DWORD PTR [rsp+0x2c]
20000332e:	31 d2                	xor    edx,edx
200003330:	48 89 e9             	mov    rcx,rbp
200003333:	e8 0d e7 ff ff       	call   200001a45 <_Z8x_memsetPviy>
200003338:	49 89 e8             	mov    r8,rbp
20000333b:	31 d2                	xor    edx,edx
20000333d:	65 48 8b 04 25 30 00 	mov    rax,QWORD PTR gs:0x30
200003344:	00 00
200003346:	48 8b 40 60          	mov    rax,QWORD PTR [rax+0x60]
20000334a:	48 8b 48 30          	mov    rcx,QWORD PTR [rax+0x30]
20000334e:	ff 93 a8 01 00 00    	call   QWORD PTR [rbx+0x1a8]
200003354:	31 c0                	xor    eax,eax
200003356:	31 c9                	xor    ecx,ecx
200003358:	48 89 fa             	mov    rdx,rdi
20000335b:	89 44 24 2c          	mov    DWORD PTR [rsp+0x2c],eax
20000335f:	ff 93 b0 03 00 00    	call   QWORD PTR [rbx+0x3b0]
200003365:	85 c0                	test   eax,eax
200003367:	74 6c                	je     2000033d5 <_Z18SeCheckEnvironmentv+0x2ed>
200003369:	48 8b 0b             	mov    rcx,QWORD PTR [rbx]
20000336c:	ba 08 00 00 00       	mov    edx,0x8
200003371:	44 8b 44 24 2c       	mov    r8d,DWORD PTR [rsp+0x2c]
200003376:	ff 93 98 01 00 00    	call   QWORD PTR [rbx+0x198]
20000337c:	48 89 fa             	mov    rdx,rdi
20000337f:	48 89 c5             	mov    rbp,rax
200003382:	48 89 c1             	mov    rcx,rax
200003385:	ff 93 b0 03 00 00    	call   QWORD PTR [rbx+0x3b0]
20000338b:	85 c0                	test   eax,eax
20000338d:	75 11                	jne    2000033a0 <_Z18SeCheckEnvironmentv+0x2b8>
20000338f:	48 8d 95 c0 01 00 00 	lea    rdx,[rbp+0x1c0]
200003396:	48 89 f1             	mov    rcx,rsi
200003399:	e8 5e 09 00 00       	call   200003cfc <_ZN6Stream10PackStringEP7_streamPc>
20000339e:	eb 0a                	jmp    2000033aa <_Z18SeCheckEnvironmentv+0x2c2>
2000033a0:	31 d2                	xor    edx,edx
2000033a2:	48 89 f1             	mov    rcx,rsi
2000033a5:	e8 e0 07 00 00       	call   200003b8a <_ZN6Stream9PackDwordEP7_streamm>
2000033aa:	44 8b 44 24 2c       	mov    r8d,DWORD PTR [rsp+0x2c]
2000033af:	31 d2                	xor    edx,edx
2000033b1:	48 89 e9             	mov    rcx,rbp
2000033b4:	e8 8c e6 ff ff       	call   200001a45 <_Z8x_memsetPviy>
2000033b9:	49 89 e8             	mov    r8,rbp
2000033bc:	31 d2                	xor    edx,edx
2000033be:	65 48 8b 04 25 30 00 	mov    rax,QWORD PTR gs:0x30
2000033c5:	00 00
2000033c7:	48 8b 40 60          	mov    rax,QWORD PTR [rax+0x60]
2000033cb:	48 8b 48 30          	mov    rcx,QWORD PTR [rax+0x30]
2000033cf:	ff 93 a8 01 00 00    	call   QWORD PTR [rbx+0x1a8]
2000033d5:	48 89 f1             	mov    rcx,rsi
2000033d8:	e8 67 ed ff ff       	call   200002144 <_ZN7Message13OutboundQueueEP7_stream>
2000033dd:	48 83 c4 30          	add    rsp,0x30
2000033e1:	5b                   	pop    rbx
2000033e2:	5e                   	pop    rsi
2000033e3:	5f                   	pop    rdi
2000033e4:	5d                   	pop    rbp
2000033e5:	41 5c                	pop    r12
2000033e7:	c3                   	ret

00000002000033e8 <_Z12SeImageCheckP5IMAGES0_>:
2000033e8:	56                   	push   rsi
2000033e9:	48 89 d6             	mov    rsi,rdx
2000033ec:	53                   	push   rbx
2000033ed:	48 89 cb             	mov    rbx,rcx
2000033f0:	48 83 ec 28          	sub    rsp,0x28
2000033f4:	e8 1d cc ff ff       	call   200000016 <InstStart>
2000033f9:	48 8b 15 50 09 00 00 	mov    rdx,QWORD PTR [rip+0x950]        # 200003d50 <.refptr.__InstanceOffset>
200003400:	48 8b 4e 48          	mov    rcx,QWORD PTR [rsi+0x48]
200003404:	48 8b 04 10          	mov    rax,QWORD PTR [rax+rdx*1]
200003408:	48 8b 53 48          	mov    rdx,QWORD PTR [rbx+0x48]
20000340c:	8b 5a 04             	mov    ebx,DWORD PTR [rdx+0x4]
20000340f:	66 39 59 04          	cmp    WORD PTR [rcx+0x4],bx
200003413:	74 0d                	je     200003422 <_Z12SeImageCheckP5IMAGES0_+0x3a>
200003415:	48 8b 40 08          	mov    rax,QWORD PTR [rax+0x8]
200003419:	c7 40 68 c2 02 00 00 	mov    DWORD PTR [rax+0x68],0x2c2
200003420:	eb 14                	jmp    200003436 <_Z12SeImageCheckP5IMAGES0_+0x4e>
200003422:	8b 72 5c             	mov    esi,DWORD PTR [rdx+0x5c]
200003425:	66 39 71 5c          	cmp    WORD PTR [rcx+0x5c],si
200003429:	74 0b                	je     200003436 <_Z12SeImageCheckP5IMAGES0_+0x4e>
20000342b:	48 8b 40 08          	mov    rax,QWORD PTR [rax+0x8]
20000342f:	c7 40 68 34 01 00 00 	mov    DWORD PTR [rax+0x68],0x134
200003436:	48 83 c4 28          	add    rsp,0x28
20000343a:	5b                   	pop    rbx
20000343b:	5e                   	pop    rsi
20000343c:	c3                   	ret

000000020000343d <_Z8SleepObfv>:
20000343d:	48 83 ec 28          	sub    rsp,0x28
200003441:	e8 5a 10 00 00       	call   2000044a0 <_ZN6Random15RandomSleepTimeEv>
200003446:	48 83 c4 28          	add    rsp,0x28
20000344a:	89 c1                	mov    ecx,eax
20000344c:	e9 6f 11 00 00       	jmp    2000045c0 <_ZN6Random7TimeoutEy>
200003451:	90                   	nop
200003452:	90                   	nop
200003453:	90                   	nop
200003454:	90                   	nop
200003455:	90                   	nop
200003456:	90                   	nop
200003457:	90                   	nop
200003458:	90                   	nop
200003459:	90                   	nop
20000345a:	90                   	nop
20000345b:	90                   	nop
20000345c:	90                   	nop
20000345d:	90                   	nop
20000345e:	90                   	nop
20000345f:	90                   	nop

0000000200003460 <_ZN6Parser12CreateParserEP6PARSERPhm>:
200003460:	55                   	push   rbp
200003461:	48 89 d5             	mov    rbp,rdx
200003464:	57                   	push   rdi
200003465:	56                   	push   rsi
200003466:	44 89 c6             	mov    esi,r8d
200003469:	53                   	push   rbx
20000346a:	48 89 cb             	mov    rbx,rcx
20000346d:	48 83 ec 38          	sub    rsp,0x38
200003471:	e8 a0 cb ff ff       	call   200000016 <InstStart>
200003476:	48 8b 15 d3 08 00 00 	mov    rdx,QWORD PTR [rip+0x8d3]        # 200003d50 <.refptr.__InstanceOffset>
20000347d:	41 89 f0             	mov    r8d,esi
200003480:	4c 89 44 24 28       	mov    QWORD PTR [rsp+0x28],r8
200003485:	48 8b 3c 10          	mov    rdi,QWORD PTR [rax+rdx*1]
200003489:	31 d2                	xor    edx,edx
20000348b:	48 8b 0f             	mov    rcx,QWORD PTR [rdi]
20000348e:	ff 97 98 01 00 00    	call   QWORD PTR [rdi+0x198]
200003494:	48 89 03             	mov    QWORD PTR [rbx],rax
200003497:	48 85 c0             	test   rax,rax
20000349a:	74 20                	je     2000034bc <_ZN6Parser12CreateParserEP6PARSERPhm+0x5c>
20000349c:	4c 8b 44 24 28       	mov    r8,QWORD PTR [rsp+0x28]
2000034a1:	48 89 c1             	mov    rcx,rax
2000034a4:	48 89 ea             	mov    rdx,rbp
2000034a7:	e8 84 e5 ff ff       	call   200001a30 <_Z8x_memcpyPvPKvy>
2000034ac:	48 8b 03             	mov    rax,QWORD PTR [rbx]
2000034af:	89 73 10             	mov    DWORD PTR [rbx+0x10],esi
2000034b2:	48 89 43 08          	mov    QWORD PTR [rbx+0x8],rax
2000034b6:	8b 47 10             	mov    eax,DWORD PTR [rdi+0x10]
2000034b9:	89 43 14             	mov    DWORD PTR [rbx+0x14],eax
2000034bc:	48 83 c4 38          	add    rsp,0x38
2000034c0:	5b                   	pop    rbx
2000034c1:	5e                   	pop    rsi
2000034c2:	5f                   	pop    rdi
2000034c3:	5d                   	pop    rbp
2000034c4:	c3                   	ret

00000002000034c5 <_ZN6Parser13DestroyParserEP6PARSER>:
2000034c5:	56                   	push   rsi
2000034c6:	53                   	push   rbx
2000034c7:	48 89 cb             	mov    rbx,rcx
2000034ca:	48 83 ec 28          	sub    rsp,0x28
2000034ce:	e8 43 cb ff ff       	call   200000016 <InstStart>
2000034d3:	48 85 db             	test   rbx,rbx
2000034d6:	74 35                	je     20000350d <_ZN6Parser13DestroyParserEP6PARSER+0x48>
2000034d8:	48 8b 0b             	mov    rcx,QWORD PTR [rbx]
2000034db:	48 85 c9             	test   rcx,rcx
2000034de:	74 2d                	je     20000350d <_ZN6Parser13DestroyParserEP6PARSER+0x48>
2000034e0:	48 8b 15 69 08 00 00 	mov    rdx,QWORD PTR [rip+0x869]        # 200003d50 <.refptr.__InstanceOffset>
2000034e7:	44 8b 43 10          	mov    r8d,DWORD PTR [rbx+0x10]
2000034eb:	48 8b 34 10          	mov    rsi,QWORD PTR [rax+rdx*1]
2000034ef:	31 d2                	xor    edx,edx
2000034f1:	e8 4f e5 ff ff       	call   200001a45 <_Z8x_memsetPviy>
2000034f6:	4c 8b 03             	mov    r8,QWORD PTR [rbx]
2000034f9:	31 d2                	xor    edx,edx
2000034fb:	48 8b 0e             	mov    rcx,QWORD PTR [rsi]
2000034fe:	ff 96 a8 01 00 00    	call   QWORD PTR [rsi+0x1a8]
200003504:	31 c0                	xor    eax,eax
200003506:	48 89 43 08          	mov    QWORD PTR [rbx+0x8],rax
20000350a:	48 89 03             	mov    QWORD PTR [rbx],rax
20000350d:	48 83 c4 28          	add    rsp,0x28
200003511:	5b                   	pop    rbx
200003512:	5e                   	pop    rsi
200003513:	c3                   	ret

0000000200003514 <_ZN6Parser10UnpackByteEP6PARSER>:
200003514:	53                   	push   rbx
200003515:	48 83 ec 30          	sub    rsp,0x30
200003519:	83 79 10 00          	cmp    DWORD PTR [rcx+0x10],0x0
20000351d:	c6 44 24 2f 00       	mov    BYTE PTR [rsp+0x2f],0x0
200003522:	74 1e                	je     200003542 <_ZN6Parser10UnpackByteEP6PARSER+0x2e>
200003524:	48 8b 51 08          	mov    rdx,QWORD PTR [rcx+0x8]
200003528:	48 89 cb             	mov    rbx,rcx
20000352b:	41 b8 01 00 00 00    	mov    r8d,0x1
200003531:	48 8d 4c 24 2f       	lea    rcx,[rsp+0x2f]
200003536:	e8 f5 e4 ff ff       	call   200001a30 <_Z8x_memcpyPvPKvy>
20000353b:	48 ff 43 08          	inc    QWORD PTR [rbx+0x8]
20000353f:	ff 4b 10             	dec    DWORD PTR [rbx+0x10]
200003542:	8a 44 24 2f          	mov    al,BYTE PTR [rsp+0x2f]
200003546:	48 83 c4 30          	add    rsp,0x30
20000354a:	5b                   	pop    rbx
20000354b:	c3                   	ret

000000020000354c <_ZN6Parser11UnpackShortEP6PARSER>:
20000354c:	53                   	push   rbx
20000354d:	48 83 ec 30          	sub    rsp,0x30
200003551:	83 79 10 01          	cmp    DWORD PTR [rcx+0x10],0x1
200003555:	66 c7 44 24 2e 00 00 	mov    WORD PTR [rsp+0x2e],0x0
20000355c:	76 20                	jbe    20000357e <_ZN6Parser11UnpackShortEP6PARSER+0x32>
20000355e:	48 8b 51 08          	mov    rdx,QWORD PTR [rcx+0x8]
200003562:	48 89 cb             	mov    rbx,rcx
200003565:	41 b8 02 00 00 00    	mov    r8d,0x2
20000356b:	48 8d 4c 24 2e       	lea    rcx,[rsp+0x2e]
200003570:	e8 bb e4 ff ff       	call   200001a30 <_Z8x_memcpyPvPKvy>
200003575:	48 83 43 08 02       	add    QWORD PTR [rbx+0x8],0x2
20000357a:	83 6b 10 02          	sub    DWORD PTR [rbx+0x10],0x2
20000357e:	66 8b 44 24 2e       	mov    ax,WORD PTR [rsp+0x2e]
200003583:	48 83 c4 30          	add    rsp,0x30
200003587:	5b                   	pop    rbx
200003588:	c3                   	ret

0000000200003589 <_ZN6Parser11UnpackDwordEP6PARSER>:
200003589:	53                   	push   rbx
20000358a:	31 c0                	xor    eax,eax
20000358c:	48 83 ec 30          	sub    rsp,0x30
200003590:	89 44 24 2c          	mov    DWORD PTR [rsp+0x2c],eax
200003594:	31 c0                	xor    eax,eax
200003596:	48 85 c9             	test   rcx,rcx
200003599:	74 32                	je     2000035cd <_ZN6Parser11UnpackDwordEP6PARSER+0x44>
20000359b:	83 79 10 03          	cmp    DWORD PTR [rcx+0x10],0x3
20000359f:	48 89 cb             	mov    rbx,rcx
2000035a2:	76 29                	jbe    2000035cd <_ZN6Parser11UnpackDwordEP6PARSER+0x44>
2000035a4:	48 8b 51 08          	mov    rdx,QWORD PTR [rcx+0x8]
2000035a8:	41 b8 04 00 00 00    	mov    r8d,0x4
2000035ae:	48 8d 4c 24 2c       	lea    rcx,[rsp+0x2c]
2000035b3:	e8 78 e4 ff ff       	call   200001a30 <_Z8x_memcpyPvPKvy>
2000035b8:	48 83 43 08 04       	add    QWORD PTR [rbx+0x8],0x4
2000035bd:	8b 44 24 2c          	mov    eax,DWORD PTR [rsp+0x2c]
2000035c1:	83 6b 10 04          	sub    DWORD PTR [rbx+0x10],0x4
2000035c5:	83 7b 14 00          	cmp    DWORD PTR [rbx+0x14],0x0
2000035c9:	75 02                	jne    2000035cd <_ZN6Parser11UnpackDwordEP6PARSER+0x44>
2000035cb:	0f c8                	bswap  eax
2000035cd:	48 83 c4 30          	add    rsp,0x30
2000035d1:	5b                   	pop    rbx
2000035d2:	c3                   	ret

00000002000035d3 <_ZN6Parser13UnpackDword64EP6PARSER>:
2000035d3:	53                   	push   rbx
2000035d4:	31 c0                	xor    eax,eax
2000035d6:	48 83 ec 30          	sub    rsp,0x30
2000035da:	48 89 44 24 28       	mov    QWORD PTR [rsp+0x28],rax
2000035df:	31 c0                	xor    eax,eax
2000035e1:	48 85 c9             	test   rcx,rcx
2000035e4:	74 34                	je     20000361a <_ZN6Parser13UnpackDword64EP6PARSER+0x47>
2000035e6:	83 79 10 07          	cmp    DWORD PTR [rcx+0x10],0x7
2000035ea:	48 89 cb             	mov    rbx,rcx
2000035ed:	76 2b                	jbe    20000361a <_ZN6Parser13UnpackDword64EP6PARSER+0x47>
2000035ef:	48 8b 51 08          	mov    rdx,QWORD PTR [rcx+0x8]
2000035f3:	41 b8 04 00 00 00    	mov    r8d,0x4
2000035f9:	48 8d 4c 24 28       	lea    rcx,[rsp+0x28]
2000035fe:	e8 2d e4 ff ff       	call   200001a30 <_Z8x_memcpyPvPKvy>
200003603:	48 83 43 08 08       	add    QWORD PTR [rbx+0x8],0x8
200003608:	48 8b 44 24 28       	mov    rax,QWORD PTR [rsp+0x28]
20000360d:	83 6b 10 08          	sub    DWORD PTR [rbx+0x10],0x8
200003611:	83 7b 14 00          	cmp    DWORD PTR [rbx+0x14],0x0
200003615:	75 03                	jne    20000361a <_ZN6Parser13UnpackDword64EP6PARSER+0x47>
200003617:	48 0f c8             	bswap  rax
20000361a:	48 83 c4 30          	add    rsp,0x30
20000361e:	5b                   	pop    rbx
20000361f:	c3                   	ret

0000000200003620 <_ZN6Parser10UnpackBoolEP6PARSER>:
200003620:	53                   	push   rbx
200003621:	31 c0                	xor    eax,eax
200003623:	48 83 ec 30          	sub    rsp,0x30
200003627:	89 44 24 2c          	mov    DWORD PTR [rsp+0x2c],eax
20000362b:	31 c0                	xor    eax,eax
20000362d:	48 85 c9             	test   rcx,rcx
200003630:	74 30                	je     200003662 <_ZN6Parser10UnpackBoolEP6PARSER+0x42>
200003632:	83 79 10 03          	cmp    DWORD PTR [rcx+0x10],0x3
200003636:	48 89 cb             	mov    rbx,rcx
200003639:	76 27                	jbe    200003662 <_ZN6Parser10UnpackBoolEP6PARSER+0x42>
20000363b:	48 8b 51 08          	mov    rdx,QWORD PTR [rcx+0x8]
20000363f:	41 b8 04 00 00 00    	mov    r8d,0x4
200003645:	48 8d 4c 24 2c       	lea    rcx,[rsp+0x2c]
20000364a:	e8 e1 e3 ff ff       	call   200001a30 <_Z8x_memcpyPvPKvy>
20000364f:	31 c0                	xor    eax,eax
200003651:	48 83 43 08 04       	add    QWORD PTR [rbx+0x8],0x4
200003656:	83 6b 10 04          	sub    DWORD PTR [rbx+0x10],0x4
20000365a:	83 7c 24 2c 00       	cmp    DWORD PTR [rsp+0x2c],0x0
20000365f:	0f 95 c0             	setne  al
200003662:	48 83 c4 30          	add    rsp,0x30
200003666:	5b                   	pop    rbx
200003667:	c3                   	ret

0000000200003668 <_ZN6Parser11UnpackBytesEP6PARSERPm>:
200003668:	56                   	push   rsi
200003669:	31 c0                	xor    eax,eax
20000366b:	53                   	push   rbx
20000366c:	48 89 cb             	mov    rbx,rcx
20000366f:	48 83 ec 38          	sub    rsp,0x38
200003673:	89 44 24 2c          	mov    DWORD PTR [rsp+0x2c],eax
200003677:	48 85 c9             	test   rcx,rcx
20000367a:	74 55                	je     2000036d1 <_ZN6Parser11UnpackBytesEP6PARSERPm+0x69>
20000367c:	83 79 10 03          	cmp    DWORD PTR [rcx+0x10],0x3
200003680:	76 4d                	jbe    2000036cf <_ZN6Parser11UnpackBytesEP6PARSERPm+0x67>
200003682:	48 89 d6             	mov    rsi,rdx
200003685:	48 8b 51 08          	mov    rdx,QWORD PTR [rcx+0x8]
200003689:	41 b8 04 00 00 00    	mov    r8d,0x4
20000368f:	48 8d 4c 24 2c       	lea    rcx,[rsp+0x2c]
200003694:	e8 97 e3 ff ff       	call   200001a30 <_Z8x_memcpyPvPKvy>
200003699:	48 8b 43 08          	mov    rax,QWORD PTR [rbx+0x8]
20000369d:	83 6b 10 04          	sub    DWORD PTR [rbx+0x10],0x4
2000036a1:	83 7b 14 00          	cmp    DWORD PTR [rbx+0x14],0x0
2000036a5:	48 8d 48 04          	lea    rcx,[rax+0x4]
2000036a9:	75 0a                	jne    2000036b5 <_ZN6Parser11UnpackBytesEP6PARSERPm+0x4d>
2000036ab:	8b 44 24 2c          	mov    eax,DWORD PTR [rsp+0x2c]
2000036af:	0f c8                	bswap  eax
2000036b1:	89 44 24 2c          	mov    DWORD PTR [rsp+0x2c],eax
2000036b5:	8b 44 24 2c          	mov    eax,DWORD PTR [rsp+0x2c]
2000036b9:	48 85 f6             	test   rsi,rsi
2000036bc:	74 02                	je     2000036c0 <_ZN6Parser11UnpackBytesEP6PARSERPm+0x58>
2000036be:	89 06                	mov    DWORD PTR [rsi],eax
2000036c0:	29 43 10             	sub    DWORD PTR [rbx+0x10],eax
2000036c3:	48 01 c8             	add    rax,rcx
2000036c6:	48 89 43 08          	mov    QWORD PTR [rbx+0x8],rax
2000036ca:	48 89 cb             	mov    rbx,rcx
2000036cd:	eb 02                	jmp    2000036d1 <_ZN6Parser11UnpackBytesEP6PARSERPm+0x69>
2000036cf:	31 db                	xor    ebx,ebx
2000036d1:	48 83 c4 38          	add    rsp,0x38
2000036d5:	48 89 d8             	mov    rax,rbx
2000036d8:	5b                   	pop    rbx
2000036d9:	5e                   	pop    rsi
2000036da:	c3                   	ret

00000002000036db <_ZN6Parser12ParserMemcpyEP6PARSERPPh>:
2000036db:	57                   	push   rdi
2000036dc:	56                   	push   rsi
2000036dd:	48 89 d6             	mov    rsi,rdx
2000036e0:	53                   	push   rbx
2000036e1:	48 83 ec 40          	sub    rsp,0x40
2000036e5:	48 89 4c 24 28       	mov    QWORD PTR [rsp+0x28],rcx
2000036ea:	e8 27 c9 ff ff       	call   200000016 <InstStart>
2000036ef:	48 8b 15 5a 06 00 00 	mov    rdx,QWORD PTR [rip+0x65a]        # 200003d50 <.refptr.__InstanceOffset>
2000036f6:	48 8b 4c 24 28       	mov    rcx,QWORD PTR [rsp+0x28]
2000036fb:	48 8b 3c 10          	mov    rdi,QWORD PTR [rax+rdx*1]
2000036ff:	31 c0                	xor    eax,eax
200003701:	48 8d 54 24 3c       	lea    rdx,[rsp+0x3c]
200003706:	89 44 24 3c          	mov    DWORD PTR [rsp+0x3c],eax
20000370a:	e8 59 ff ff ff       	call   200003668 <_ZN6Parser11UnpackBytesEP6PARSERPm>
20000370f:	44 8b 44 24 3c       	mov    r8d,DWORD PTR [rsp+0x3c]
200003714:	48 8b 0f             	mov    rcx,QWORD PTR [rdi]
200003717:	31 d2                	xor    edx,edx
200003719:	48 89 c3             	mov    rbx,rax
20000371c:	4c 89 44 24 28       	mov    QWORD PTR [rsp+0x28],r8
200003721:	ff 97 98 01 00 00    	call   QWORD PTR [rdi+0x198]
200003727:	48 89 06             	mov    QWORD PTR [rsi],rax
20000372a:	48 85 c0             	test   rax,rax
20000372d:	74 17                	je     200003746 <_ZN6Parser12ParserMemcpyEP6PARSERPPh+0x6b>
20000372f:	4c 8b 44 24 28       	mov    r8,QWORD PTR [rsp+0x28]
200003734:	48 83 c4 40          	add    rsp,0x40
200003738:	48 89 da             	mov    rdx,rbx
20000373b:	48 89 c1             	mov    rcx,rax
20000373e:	5b                   	pop    rbx
20000373f:	5e                   	pop    rsi
200003740:	5f                   	pop    rdi
200003741:	e9 ea e2 ff ff       	jmp    200001a30 <_Z8x_memcpyPvPKvy>
200003746:	48 83 c4 40          	add    rsp,0x40
20000374a:	5b                   	pop    rbx
20000374b:	5e                   	pop    rsi
20000374c:	5f                   	pop    rdi
20000374d:	c3                   	ret

000000020000374e <_ZN6Parser12ParserStrcpyEP6PARSERPPc>:
20000374e:	57                   	push   rdi
20000374f:	56                   	push   rsi
200003750:	48 89 d6             	mov    rsi,rdx
200003753:	53                   	push   rbx
200003754:	48 83 ec 40          	sub    rsp,0x40
200003758:	48 89 4c 24 28       	mov    QWORD PTR [rsp+0x28],rcx
20000375d:	e8 b4 c8 ff ff       	call   200000016 <InstStart>
200003762:	48 8b 15 e7 05 00 00 	mov    rdx,QWORD PTR [rip+0x5e7]        # 200003d50 <.refptr.__InstanceOffset>
200003769:	48 8b 4c 24 28       	mov    rcx,QWORD PTR [rsp+0x28]
20000376e:	48 8b 3c 10          	mov    rdi,QWORD PTR [rax+rdx*1]
200003772:	31 c0                	xor    eax,eax
200003774:	48 8d 54 24 3c       	lea    rdx,[rsp+0x3c]
200003779:	89 44 24 3c          	mov    DWORD PTR [rsp+0x3c],eax
20000377d:	e8 e6 fe ff ff       	call   200003668 <_ZN6Parser11UnpackBytesEP6PARSERPm>
200003782:	44 8b 44 24 3c       	mov    r8d,DWORD PTR [rsp+0x3c]
200003787:	48 8b 0f             	mov    rcx,QWORD PTR [rdi]
20000378a:	31 d2                	xor    edx,edx
20000378c:	48 89 c3             	mov    rbx,rax
20000378f:	4c 89 44 24 28       	mov    QWORD PTR [rsp+0x28],r8
200003794:	ff 97 98 01 00 00    	call   QWORD PTR [rdi+0x198]
20000379a:	48 89 06             	mov    QWORD PTR [rsi],rax
20000379d:	48 85 c0             	test   rax,rax
2000037a0:	74 17                	je     2000037b9 <_ZN6Parser12ParserStrcpyEP6PARSERPPc+0x6b>
2000037a2:	4c 8b 44 24 28       	mov    r8,QWORD PTR [rsp+0x28]
2000037a7:	48 83 c4 40          	add    rsp,0x40
2000037ab:	48 89 da             	mov    rdx,rbx
2000037ae:	48 89 c1             	mov    rcx,rax
2000037b1:	5b                   	pop    rbx
2000037b2:	5e                   	pop    rsi
2000037b3:	5f                   	pop    rdi
2000037b4:	e9 77 e2 ff ff       	jmp    200001a30 <_Z8x_memcpyPvPKvy>
2000037b9:	48 83 c4 40          	add    rsp,0x40
2000037bd:	5b                   	pop    rbx
2000037be:	5e                   	pop    rsi
2000037bf:	5f                   	pop    rdi
2000037c0:	c3                   	ret

00000002000037c1 <_ZN6Parser12ParserWcscpyEP6PARSERPPw>:
2000037c1:	55                   	push   rbp
2000037c2:	57                   	push   rdi
2000037c3:	48 89 d7             	mov    rdi,rdx
2000037c6:	56                   	push   rsi
2000037c7:	53                   	push   rbx
2000037c8:	48 83 ec 48          	sub    rsp,0x48
2000037cc:	48 89 4c 24 28       	mov    QWORD PTR [rsp+0x28],rcx
2000037d1:	e8 40 c8 ff ff       	call   200000016 <InstStart>
2000037d6:	48 8b 15 73 05 00 00 	mov    rdx,QWORD PTR [rip+0x573]        # 200003d50 <.refptr.__InstanceOffset>
2000037dd:	48 8b 4c 24 28       	mov    rcx,QWORD PTR [rsp+0x28]
2000037e2:	48 8b 2c 10          	mov    rbp,QWORD PTR [rax+rdx*1]
2000037e6:	31 c0                	xor    eax,eax
2000037e8:	48 8d 54 24 3c       	lea    rdx,[rsp+0x3c]
2000037ed:	89 44 24 3c          	mov    DWORD PTR [rsp+0x3c],eax
2000037f1:	e8 72 fe ff ff       	call   200003668 <_ZN6Parser11UnpackBytesEP6PARSERPm>
2000037f6:	8b 5c 24 3c          	mov    ebx,DWORD PTR [rsp+0x3c]
2000037fa:	48 8b 4d 00          	mov    rcx,QWORD PTR [rbp+0x0]
2000037fe:	31 d2                	xor    edx,edx
200003800:	48 89 c6             	mov    rsi,rax
200003803:	48 ff c3             	inc    rbx
200003806:	48 01 db             	add    rbx,rbx
200003809:	49 89 d8             	mov    r8,rbx
20000380c:	ff 95 98 01 00 00    	call   QWORD PTR [rbp+0x198]
200003812:	48 89 07             	mov    QWORD PTR [rdi],rax
200003815:	48 85 c0             	test   rax,rax
200003818:	74 17                	je     200003831 <_ZN6Parser12ParserWcscpyEP6PARSERPPw+0x70>
20000381a:	48 83 c4 48          	add    rsp,0x48
20000381e:	4c 8d 43 fe          	lea    r8,[rbx-0x2]
200003822:	48 89 f2             	mov    rdx,rsi
200003825:	48 89 c1             	mov    rcx,rax
200003828:	5b                   	pop    rbx
200003829:	5e                   	pop    rsi
20000382a:	5f                   	pop    rdi
20000382b:	5d                   	pop    rbp
20000382c:	e9 ff e1 ff ff       	jmp    200001a30 <_Z8x_memcpyPvPKvy>
200003831:	48 83 c4 48          	add    rsp,0x48
200003835:	5b                   	pop    rbx
200003836:	5e                   	pop    rsi
200003837:	5f                   	pop    rdi
200003838:	5d                   	pop    rbp
200003839:	c3                   	ret

000000020000383a <_ZN6Parser12UnpackStringEP6PARSERPm>:
20000383a:	e9 29 fe ff ff       	jmp    200003668 <_ZN6Parser11UnpackBytesEP6PARSERPm>

000000020000383f <_ZN6Parser13UnpackWStringEP6PARSERPm>:
20000383f:	e9 24 fe ff ff       	jmp    200003668 <_ZN6Parser11UnpackBytesEP6PARSERPm>
200003844:	90                   	nop
200003845:	90                   	nop
200003846:	90                   	nop
200003847:	90                   	nop
200003848:	90                   	nop
200003849:	90                   	nop
20000384a:	90                   	nop
20000384b:	90                   	nop
20000384c:	90                   	nop
20000384d:	90                   	nop
20000384e:	90                   	nop
20000384f:	90                   	nop

0000000200003850 <_ZN7Process18GetProcessIdByNameEPc>:
200003850:	41 54                	push   r12
200003852:	55                   	push   rbp
200003853:	48 89 cd             	mov    rbp,rcx
200003856:	57                   	push   rdi
200003857:	56                   	push   rsi
200003858:	53                   	push   rbx
200003859:	48 81 ec 50 01 00 00 	sub    rsp,0x150
200003860:	e8 b1 c7 ff ff       	call   200000016 <InstStart>
200003865:	48 8d 7c 24 20       	lea    rdi,[rsp+0x20]
20000386a:	b9 4c 00 00 00       	mov    ecx,0x4c
20000386f:	48 8b 15 da 04 00 00 	mov    rdx,QWORD PTR [rip+0x4da]        # 200003d50 <.refptr.__InstanceOffset>
200003876:	48 8b 34 10          	mov    rsi,QWORD PTR [rax+rdx*1]
20000387a:	31 c0                	xor    eax,eax
20000387c:	31 d2                	xor    edx,edx
20000387e:	f3 ab                	rep stos DWORD PTR es:[rdi],eax
200003880:	c7 44 24 20 30 01 00 	mov    DWORD PTR [rsp+0x20],0x130
200003887:	00
200003888:	b9 02 00 00 00       	mov    ecx,0x2
20000388d:	ff 96 58 02 00 00    	call   QWORD PTR [rsi+0x258]
200003893:	48 85 c0             	test   rax,rax
200003896:	75 0d                	jne    2000038a5 <_ZN7Process18GetProcessIdByNameEPc+0x55>
200003898:	48 8b 46 08          	mov    rax,QWORD PTR [rsi+0x8]
20000389c:	c7 40 68 06 00 00 00 	mov    DWORD PTR [rax+0x68],0x6
2000038a3:	eb 56                	jmp    2000038fb <_ZN7Process18GetProcessIdByNameEPc+0xab>
2000038a5:	48 8d 7c 24 20       	lea    rdi,[rsp+0x20]
2000038aa:	48 89 c3             	mov    rbx,rax
2000038ad:	4c 8d 64 24 4c       	lea    r12,[rsp+0x4c]
2000038b2:	48 89 c1             	mov    rcx,rax
2000038b5:	48 89 fa             	mov    rdx,rdi
2000038b8:	ff 96 60 02 00 00    	call   QWORD PTR [rsi+0x260]
2000038be:	ff c8                	dec    eax
2000038c0:	74 0b                	je     2000038cd <_ZN7Process18GetProcessIdByNameEPc+0x7d>
2000038c2:	48 89 d9             	mov    rcx,rbx
2000038c5:	ff 96 08 02 00 00    	call   QWORD PTR [rsi+0x208]
2000038cb:	eb 2e                	jmp    2000038fb <_ZN7Process18GetProcessIdByNameEPc+0xab>
2000038cd:	48 89 fa             	mov    rdx,rdi
2000038d0:	48 89 d9             	mov    rcx,rbx
2000038d3:	ff 96 68 02 00 00    	call   QWORD PTR [rsi+0x268]
2000038d9:	ff c8                	dec    eax
2000038db:	75 e5                	jne    2000038c2 <_ZN7Process18GetProcessIdByNameEPc+0x72>
2000038dd:	4c 89 e2             	mov    rdx,r12
2000038e0:	48 89 e9             	mov    rcx,rbp
2000038e3:	e8 a8 e1 ff ff       	call   200001a90 <_Z8x_strcmpPcS_>
2000038e8:	85 c0                	test   eax,eax
2000038ea:	75 e1                	jne    2000038cd <_ZN7Process18GetProcessIdByNameEPc+0x7d>
2000038ec:	48 89 d9             	mov    rcx,rbx
2000038ef:	ff 96 08 02 00 00    	call   QWORD PTR [rsi+0x208]
2000038f5:	8b 44 24 28          	mov    eax,DWORD PTR [rsp+0x28]
2000038f9:	eb 02                	jmp    2000038fd <_ZN7Process18GetProcessIdByNameEPc+0xad>
2000038fb:	31 c0                	xor    eax,eax
2000038fd:	48 81 c4 50 01 00 00 	add    rsp,0x150
200003904:	5b                   	pop    rbx
200003905:	5e                   	pop    rsi
200003906:	5f                   	pop    rdi
200003907:	5d                   	pop    rbp
200003908:	41 5c                	pop    r12
20000390a:	c3                   	ret

000000020000390b <_ZN7Process13NtOpenProcessEmm>:
20000390b:	57                   	push   rdi
20000390c:	56                   	push   rsi
20000390d:	89 d6                	mov    esi,edx
20000390f:	53                   	push   rbx
200003910:	89 cb                	mov    ebx,ecx
200003912:	48 83 ec 70          	sub    rsp,0x70
200003916:	e8 fb c6 ff ff       	call   200000016 <InstStart>
20000391b:	48 8d 7c 24 44       	lea    rdi,[rsp+0x44]
200003920:	b9 0b 00 00 00       	mov    ecx,0xb
200003925:	48 8b 15 24 04 00 00 	mov    rdx,QWORD PTR [rip+0x424]        # 200003d50 <.refptr.__InstanceOffset>
20000392c:	4c 8d 4c 24 30       	lea    r9,[rsp+0x30]
200003931:	4c 8d 44 24 40       	lea    r8,[rsp+0x40]
200003936:	4c 8b 14 10          	mov    r10,QWORD PTR [rax+rdx*1]
20000393a:	31 c0                	xor    eax,eax
20000393c:	c7 44 24 40 30 00 00 	mov    DWORD PTR [rsp+0x40],0x30
200003943:	00
200003944:	89 da                	mov    edx,ebx
200003946:	48 89 44 24 28       	mov    QWORD PTR [rsp+0x28],rax
20000394b:	48 89 44 24 38       	mov    QWORD PTR [rsp+0x38],rax
200003950:	31 c0                	xor    eax,eax
200003952:	f3 ab                	rep stos DWORD PTR es:[rdi],eax
200003954:	89 f0                	mov    eax,esi
200003956:	48 8d 4c 24 28       	lea    rcx,[rsp+0x28]
20000395b:	48 89 44 24 30       	mov    QWORD PTR [rsp+0x30],rax
200003960:	41 ff 92 50 01 00 00 	call   QWORD PTR [r10+0x150]
200003967:	48 8b 44 24 28       	mov    rax,QWORD PTR [rsp+0x28]
20000396c:	48 83 c4 70          	add    rsp,0x70
200003970:	5b                   	pop    rbx
200003971:	5e                   	pop    rsi
200003972:	5f                   	pop    rdi
200003973:	c3                   	ret

0000000200003974 <_ZN7Process18NtCloseUserProcessEP5IMAGE>:
200003974:	56                   	push   rsi
200003975:	53                   	push   rbx
200003976:	48 89 cb             	mov    rbx,rcx
200003979:	48 83 ec 28          	sub    rsp,0x28
20000397d:	e8 94 c6 ff ff       	call   200000016 <InstStart>
200003982:	48 8b 15 c7 03 00 00 	mov    rdx,QWORD PTR [rip+0x3c7]        # 200003d50 <.refptr.__InstanceOffset>
200003989:	4c 8b 83 c8 00 00 00 	mov    r8,QWORD PTR [rbx+0xc8]
200003990:	48 8b 34 10          	mov    rsi,QWORD PTR [rax+rdx*1]
200003994:	4d 85 c0             	test   r8,r8
200003997:	74 15                	je     2000039ae <_ZN7Process18NtCloseUserProcessEP5IMAGE+0x3a>
200003999:	48 8b 4b 08          	mov    rcx,QWORD PTR [rbx+0x8]
20000399d:	31 d2                	xor    edx,edx
20000399f:	ff 96 a8 01 00 00    	call   QWORD PTR [rsi+0x1a8]
2000039a5:	31 c9                	xor    ecx,ecx
2000039a7:	48 89 8b c8 00 00 00 	mov    QWORD PTR [rbx+0xc8],rcx
2000039ae:	48 8b 4b 08          	mov    rcx,QWORD PTR [rbx+0x8]
2000039b2:	48 85 c9             	test   rcx,rcx
2000039b5:	74 0c                	je     2000039c3 <_ZN7Process18NtCloseUserProcessEP5IMAGE+0x4f>
2000039b7:	ff 96 b0 01 00 00    	call   QWORD PTR [rsi+0x1b0]
2000039bd:	31 d2                	xor    edx,edx
2000039bf:	48 89 53 08          	mov    QWORD PTR [rbx+0x8],rdx
2000039c3:	48 8b 8b d0 00 00 00 	mov    rcx,QWORD PTR [rbx+0xd0]
2000039ca:	48 85 c9             	test   rcx,rcx
2000039cd:	74 0f                	je     2000039de <_ZN7Process18NtCloseUserProcessEP5IMAGE+0x6a>
2000039cf:	ff 96 70 01 00 00    	call   QWORD PTR [rsi+0x170]
2000039d5:	31 c0                	xor    eax,eax
2000039d7:	48 89 83 d0 00 00 00 	mov    QWORD PTR [rbx+0xd0],rax
2000039de:	48 8b 4b 60          	mov    rcx,QWORD PTR [rbx+0x60]
2000039e2:	48 85 c9             	test   rcx,rcx
2000039e5:	74 11                	je     2000039f8 <_ZN7Process18NtCloseUserProcessEP5IMAGE+0x84>
2000039e7:	48 8b 86 60 01 00 00 	mov    rax,QWORD PTR [rsi+0x160]
2000039ee:	48 83 c4 28          	add    rsp,0x28
2000039f2:	31 d2                	xor    edx,edx
2000039f4:	5b                   	pop    rbx
2000039f5:	5e                   	pop    rsi
2000039f6:	ff e0                	jmp    rax
2000039f8:	48 83 c4 28          	add    rsp,0x28
2000039fc:	5b                   	pop    rbx
2000039fd:	5e                   	pop    rsi
2000039fe:	c3                   	ret
2000039ff:	90                   	nop

0000000200003a00 <_ZN6Stream10ExtractU32EPh>:
200003a00:	8b 01                	mov    eax,DWORD PTR [rcx]
200003a02:	c3                   	ret

0000000200003a03 <_ZN6Stream9PackInt64EPhy>:
200003a03:	48 0f ca             	bswap  rdx
200003a06:	48 89 11             	mov    QWORD PTR [rcx],rdx
200003a09:	c3                   	ret

0000000200003a0a <_ZN6Stream9PackInt32EPhj>:
200003a0a:	0f ca                	bswap  edx
200003a0c:	89 11                	mov    DWORD PTR [rcx],edx
200003a0e:	c3                   	ret

0000000200003a0f <_ZN6Stream12CreateStreamEv>:
200003a0f:	56                   	push   rsi
200003a10:	53                   	push   rbx
200003a11:	48 83 ec 28          	sub    rsp,0x28
200003a15:	e8 fc c5 ff ff       	call   200000016 <InstStart>
200003a1a:	48 8b 15 2f 03 00 00 	mov    rdx,QWORD PTR [rip+0x32f]        # 200003d50 <.refptr.__InstanceOffset>
200003a21:	41 b8 18 00 00 00    	mov    r8d,0x18
200003a27:	48 8b 34 10          	mov    rsi,QWORD PTR [rax+rdx*1]
200003a2b:	ba 08 00 00 00       	mov    edx,0x8
200003a30:	48 8b 0e             	mov    rcx,QWORD PTR [rsi]
200003a33:	ff 96 98 01 00 00    	call   QWORD PTR [rsi+0x198]
200003a39:	48 89 c3             	mov    rbx,rax
200003a3c:	48 85 c0             	test   rax,rax
200003a3f:	74 27                	je     200003a68 <_ZN6Stream12CreateStreamEv+0x59>
200003a41:	48 8b 0e             	mov    rcx,QWORD PTR [rsi]
200003a44:	41 b8 01 00 00 00    	mov    r8d,0x1
200003a4a:	ba 08 00 00 00       	mov    edx,0x8
200003a4f:	ff 96 98 01 00 00    	call   QWORD PTR [rsi+0x198]
200003a55:	48 89 03             	mov    QWORD PTR [rbx],rax
200003a58:	48 85 c0             	test   rax,rax
200003a5b:	74 0b                	je     200003a68 <_ZN6Stream12CreateStreamEv+0x59>
200003a5d:	31 c0                	xor    eax,eax
200003a5f:	31 d2                	xor    edx,edx
200003a61:	89 43 08             	mov    DWORD PTR [rbx+0x8],eax
200003a64:	48 89 53 10          	mov    QWORD PTR [rbx+0x10],rdx
200003a68:	48 83 c4 28          	add    rsp,0x28
200003a6c:	48 89 d8             	mov    rax,rbx
200003a6f:	5b                   	pop    rbx
200003a70:	5e                   	pop    rsi
200003a71:	c3                   	ret

0000000200003a72 <_ZN6Stream13DestroyStreamEP7_stream>:
200003a72:	56                   	push   rsi
200003a73:	53                   	push   rbx
200003a74:	48 89 cb             	mov    rbx,rcx
200003a77:	48 83 ec 28          	sub    rsp,0x28
200003a7b:	e8 96 c5 ff ff       	call   200000016 <InstStart>
200003a80:	48 85 db             	test   rbx,rbx
200003a83:	74 4d                	je     200003ad2 <_ZN6Stream13DestroyStreamEP7_stream+0x60>
200003a85:	48 8b 15 c4 02 00 00 	mov    rdx,QWORD PTR [rip+0x2c4]        # 200003d50 <.refptr.__InstanceOffset>
200003a8c:	48 8b 0b             	mov    rcx,QWORD PTR [rbx]
200003a8f:	48 8b 34 10          	mov    rsi,QWORD PTR [rax+rdx*1]
200003a93:	48 85 c9             	test   rcx,rcx
200003a96:	74 23                	je     200003abb <_ZN6Stream13DestroyStreamEP7_stream+0x49>
200003a98:	44 8b 43 08          	mov    r8d,DWORD PTR [rbx+0x8]
200003a9c:	31 d2                	xor    edx,edx
200003a9e:	e8 a2 df ff ff       	call   200001a45 <_Z8x_memsetPviy>
200003aa3:	31 d2                	xor    edx,edx
200003aa5:	4c 8b 03             	mov    r8,QWORD PTR [rbx]
200003aa8:	48 8b 0e             	mov    rcx,QWORD PTR [rsi]
200003aab:	ff 96 a8 01 00 00    	call   QWORD PTR [rsi+0x1a8]
200003ab1:	31 c0                	xor    eax,eax
200003ab3:	31 d2                	xor    edx,edx
200003ab5:	48 89 03             	mov    QWORD PTR [rbx],rax
200003ab8:	89 53 08             	mov    DWORD PTR [rbx+0x8],edx
200003abb:	48 8b 86 a8 01 00 00 	mov    rax,QWORD PTR [rsi+0x1a8]
200003ac2:	48 8b 0e             	mov    rcx,QWORD PTR [rsi]
200003ac5:	48 83 c4 28          	add    rsp,0x28
200003ac9:	31 d2                	xor    edx,edx
200003acb:	49 89 d8             	mov    r8,rbx
200003ace:	5b                   	pop    rbx
200003acf:	5e                   	pop    rsi
200003ad0:	ff e0                	jmp    rax
200003ad2:	48 83 c4 28          	add    rsp,0x28
200003ad6:	5b                   	pop    rbx
200003ad7:	5e                   	pop    rsi
200003ad8:	c3                   	ret

0000000200003ad9 <_ZN6Stream8PackByteEP7_streamh>:
200003ad9:	53                   	push   rbx
200003ada:	48 89 cb             	mov    rbx,rcx
200003add:	48 83 ec 20          	sub    rsp,0x20
200003ae1:	88 54 24 38          	mov    BYTE PTR [rsp+0x38],dl
200003ae5:	e8 2c c5 ff ff       	call   200000016 <InstStart>
200003aea:	48 85 db             	test   rbx,rbx
200003aed:	74 3f                	je     200003b2e <_ZN6Stream8PackByteEP7_streamh+0x55>
200003aef:	48 8b 15 5a 02 00 00 	mov    rdx,QWORD PTR [rip+0x25a]        # 200003d50 <.refptr.__InstanceOffset>
200003af6:	4c 8b 03             	mov    r8,QWORD PTR [rbx]
200003af9:	48 8b 04 10          	mov    rax,QWORD PTR [rax+rdx*1]
